(dp1
S'1258456'
p2
(lp3
S'1.1.2.1'
p4
asS'1586539'
p5
(lp6
S'1.4.2.2'
p7
aS'1.4.9.2'
p8
aS'1.4.2.3'
p9
aS'1.4.2.4'
p10
aS'1.4.1.5'
p11
aS'1.4.2.1'
p12
aS'1.5.2.4'
p13
aS'1.1.1.1'
p14
aS'1.1.2.3'
p15
aS'1.1.1.4'
p16
aS'1.1.2.1'
p17
aS'1.1.3.1'
p18
aS'1.5.1.2'
p19
asS'504617'
p20
(lp21
S'1.2.2.1'
p22
asS'1622607'
p23
(lp24
S'8.1.4.2'
p25
asS'1870562'
p26
(lp27
g4
asS'1356547'
p28
(lp29
S'8.2.5.2'
p30
asS'1842800'
p31
(lp32
g4
asS'1823919'
p33
(lp34
S'1.9.2.1'
p35
aS'1.4.1.4'
p36
asS'1751496'
p37
(lp38
g36
asS'758397'
p39
(lp40
g4
asS'370259'
p41
(lp42
S'1.4.1.7'
p43
asS'942226'
p44
(lp45
g4
asS'1728726'
p46
(lp47
g30
aS'1.4.2.2'
p48
asS'187249'
p49
(lp50
g4
asS'239912'
p51
(lp52
S'1.4.9.2'
p53
asS'1583456'
p54
(lp55
S'1.4.2.1'
p56
asS'2037596'
p57
(lp58
S'1.11.2.1'
p59
aS'1.1.4.4'
p60
aS'1.4.1.5'
p61
aS'1.4.6.3'
p62
aS'1.4.4.3'
p63
aS'1.4.2.4'
p64
aS'1.11.3.4'
p65
aS'1.10.3.3'
p66
aS'1.4.2.3'
p67
aS'1.1.4.2'
p68
aS'1.12.4.5'
p69
aS'1.4.2.2'
p70
aS'8.1.2.5'
p71
aS'1.2.2.1'
p72
aS'1.4.1.4'
p73
aS'1.6.2.1'
p74
aS'1.4.9.2'
p75
ag43
aS'1.6.1.1'
p76
aS'1.7.1.1'
p77
aS'1.11.1.1'
p78
aS'1.4.1.3'
p79
aS'1.4.1.8'
p80
aS'8.1.4.2'
p81
aS'1.4.2.1'
p82
aS'1.9.2.5'
p83
aS'1.1.3.1'
p84
aS'1.4.1.13'
p85
asS'1755554'
p86
(lp87
g4
asS'505104'
p88
(lp89
S'1.5.1.1'
p90
asS'448499'
p91
(lp92
g4
asS'862871'
p93
(lp94
g30
asS'1402137'
p95
(lp96
S'1.4.1.7'
p97
asS'2079862'
p98
(lp99
g4
asS'1465493'
p100
(lp101
S'1.4.9.2'
p102
asS'490292'
p103
(lp104
S'1.4.2.2'
p105
asS'1732241'
p106
(lp107
g4
asS'1097134'
p108
(lp109
S'1.5.2.2'
p110
aS'1.6.2.1'
p111
aS'1.1.3.1'
p112
ag102
aS'1.1.1.1'
p113
aS'1.4.1.1'
p114
aS'1.4.2.3'
p115
aS'8.1.1.2'
p116
aS'1.2.2.4'
p117
aS'1.4.2.2'
p118
aS'1.4.2.4'
p119
ag30
aS'1.5.1.1'
p120
aS'1.4.2.1'
p121
asS'646824'
p122
(lp123
g4
asS'448819'
p124
(lp125
S'1.4.9.2'
p126
asS'733477'
p127
(lp128
g4
asS'305307'
p129
(lp130
S'1.4.2.2'
p131
asS'2065067'
p132
(lp133
g13
ag116
aS'1.2.2.1'
p134
aS'1.4.9.2'
p135
asS'1093891'
p136
(lp137
g77
aS'1.4.2.1'
p138
aS'1.4.1.4'
p139
aS'1.4.1.5'
p140
aS'1.4.2.4'
p141
aS'1.4.9.2'
p142
asS'1778702'
p143
(lp144
g30
asS'420934'
p145
(lp146
g4
aS'1.11.3.4'
p147
ag113
aS'1.2.2.1'
p148
asS'1982807'
p149
(lp150
S'1.4.2.4'
p151
ag67
aS'1.7.1.1'
p152
asS'2053799'
p153
(lp154
g126
asS'1501712'
p155
(lp156
g61
asS'1268838'
p157
(lp158
g30
asS'919364'
p159
(lp160
g61
ag8
aS'1.2.2.1'
p161
asS'649680'
p162
(lp163
g30
asS'348578'
p164
(lp165
S'8.1.4.2'
p166
asS'358290'
p167
(lp168
g30
asS'1558467'
p169
(lp170
g12
asS'608825'
p171
(lp172
g4
asS'1742430'
p173
(lp174
g30
asS'1535494'
p175
(lp176
g75
asS'121524'
p177
(lp178
g74
asS'101945'
p179
(lp180
g13
asS'274160'
p181
(lp182
g4
asS'184991'
p183
(lp184
g4
ag74
asS'1983615'
p185
(lp186
S'1.11.2.1'
p187
aS'1.2.2.1'
p188
aS'1.5.2.1'
p189
aS'1.4.2.4'
p190
ag111
aS'1.4.4.3'
p191
aS'1.4.1.5'
p192
aS'1.1.1.4'
p193
aS'1.4.1.4'
p194
ag69
ag147
asS'2017509'
p195
(lp196
S'1.4.9.2'
p197
asS'1829275'
p198
(lp199
S'1.4.1.1'
p200
asS'2081073'
p201
(lp202
g4
ag30
asS'1605237'
p203
(lp204
g190
ag161
ag105
asS'2025804'
p205
(lp206
g30
ag4
asS'1894999'
p207
(lp208
S'1.12.4.5'
p209
ag13
ag75
aS'1.1.1.1'
p210
ag138
ag30
aS'1.11.2.4'
p211
aS'1.9.1.2'
p212
aS'1.2.3.1'
p213
ag16
aS'1.2.2.2'
p214
aS'1.1.2.4'
p215
aS'1.10.3.3'
p216
ag189
asS'275767'
p217
(lp218
S'1.4.1.7'
p219
asS'313431'
p220
(lp221
g190
asS'1594876'
p222
(lp223
S'1.4.1.2'
p224
asS'1382443'
p225
(lp226
g212
asS'715219'
p227
(lp228
g121
ag224
ag13
asS'528229'
p229
(lp230
g80
asS'138511'
p231
(lp232
S'1.6.2.1'
p233
asS'1213551'
p234
(lp235
g4
asS'1722808'
p236
(lp237
g4
asS'1559282'
p238
(lp239
g4
asS'499285'
p240
(lp241
g82
asS'1428455'
p242
(lp243
g97
asS'2010605'
p244
(lp245
g30
ag4
aS'1.4.1.4'
p246
aS'1.4.1.2'
p247
aS'1.11.2.4'
p248
ag75
ag190
aS'1.4.2.1'
p249
ag111
asS'944984'
p250
(lp251
g4
asS'1690385'
p252
(lp253
g4
asS'1678495'
p254
(lp255
g30
ag138
asS'1817059'
p256
(lp257
g4
asS'1999410'
p258
(lp259
g4
asS'1449534'
p260
(lp261
g138
ag35
ag10
aS'1.6.2.1'
p262
aS'1.9.3.2'
p263
aS'1.9.2.5'
p264
ag118
asS'269726'
p265
(lp266
S'1.11.1.2'
p267
aS'1.13.1.1'
p268
aS'1.4.1.5'
p269
aS'1.7.1.1'
p270
ag115
asS'1581752'
p271
(lp272
g4
asS'182114'
p273
(lp274
g105
asS'2067359'
p275
(lp276
g4
asS'1714768'
p277
(lp278
g4
asS'202365'
p279
(lp280
g4
aS'1.4.9.2'
p281
asS'1606823'
p282
(lp283
S'1.9.3.2'
p284
asS'727605'
p285
(lp286
S'1.1.2.3'
p287
ag246
aS'1.4.1.5'
p288
ag233
aS'1.4.2.2'
p289
aS'1.3.3.2'
p290
ag30
aS'1.5.2.1'
p291
ag4
asS'806280'
p292
(lp293
g4
asS'1116679'
p294
(lp295
g4
asS'1222128'
p296
(lp297
g4
aS'1.4.2.4'
p298
ag30
asS'289165'
p299
(lp300
g200
ag30
ag9
ag60
asS'694427'
p301
(lp302
g4
asS'1166534'
p303
(lp304
g53
asS'721398'
p305
(lp306
g126
ag105
ag4
ag246
asS'160070'
p307
(lp308
g30
asS'2019812'
p309
(lp310
S'1.2.2.1'
p311
asS'693734'
p312
(lp313
g97
asS'1584141'
p314
(lp315
g4
ag187
asS'1854214'
p316
(lp317
g105
asS'335609'
p318
(lp319
S'1.4.1.2'
p320
asS'1731373'
p321
(lp322
g30
asS'242147'
p323
(lp324
S'1.4.1.4'
p325
asS'795928'
p326
(lp327
g105
ag13
aS'1.4.1.5'
p328
ag138
aS'8.1.1.2'
p329
aS'1.4.2.5'
p330
aS'1.4.9.2'
p331
aS'1.4.2.4'
p332
ag166
ag224
ag189
ag212
asS'1434094'
p333
(lp334
g4
aS'1.4.1.5'
p335
ag190
ag82
ag48
ag53
asS'1303766'
p336
(lp337
g8
aS'1.6.1.1'
p338
asS'148893'
p339
(lp340
g30
asS'1485064'
p341
(lp342
g4
ag30
asS'1095662'
p343
(lp344
g25
ag13
asS'1320380'
p345
(lp346
g141
asS'517751'
p347
(lp348
g4
asS'1848542'
p349
(lp350
S'1.9.2.1'
p351
asS'1151321'
p352
(lp353
g4
ag30
asS'1930643'
p354
(lp355
g30
ag113
aS'1.5.2.3'
p356
aS'1.2.2.1'
p357
ag48
asS'1459156'
p358
(lp359
S'1.4.1.2'
p360
asS'126261'
p361
(lp362
g7
aS'1.4.2.3'
p363
asS'819593'
p364
(lp365
g111
aS'1.2.2.2'
p366
ag13
ag338
asS'1146551'
p367
(lp368
g85
asS'1315241'
p369
(lp370
S'1.4.1.5'
p371
ag194
aS'1.4.2.4'
p372
asS'1310053'
p373
(lp374
g36
aS'1.4.2.4'
p375
asS'107092'
p376
(lp377
g105
asS'1427698'
p378
(lp379
g36
asS'294801'
p380
(lp381
g97
asS'952724'
p382
(lp383
g4
asS'1724752'
p384
(lp385
S'1.4.2.4'
p386
ag148
ag13
asS'1315409'
p387
(lp388
g4
asS'1724972'
p389
(lp390
g219
asS'999720'
p391
(lp392
g30
asS'2088953'
p393
(lp394
g36
asS'813631'
p395
(lp396
g4
ag375
ag233
ag36
ag48
ag30
aS'1.2.2.1'
p397
ag35
asS'1591365'
p398
(lp399
g190
asS'764427'
p400
(lp401
g4
asS'1773542'
p402
(lp403
g4
asS'1694675'
p404
(lp405
S'1.4.2.3'
p406
ag105
ag30
asS'1086625'
p407
(lp408
g30
ag4
asS'1655309'
p409
(lp410
g138
asS'472301'
p411
(lp412
g4
asS'1864175'
p413
(lp414
g30
asS'1864171'
p415
(lp416
g4
asS'1912048'
p417
(lp418
g4
asS'422895'
p419
(lp420
S'1.2.2.5'
p421
asS'425463'
p422
(lp423
S'8.1.6.1'
p424
asS'1743935'
p425
(lp426
g13
asS'1322157'
p427
(lp428
g212
asS'771882'
p429
(lp430
g4
asS'642129'
p431
(lp432
g75
aS'1.9.2.1'
p433
asS'555399'
p434
(lp435
g148
ag262
asS'1007109'
p436
(lp437
g30
aS'1.12.1.2'
p438
asS'266057'
p439
(lp440
g4
asS'917775'
p441
(lp442
g8
asS'706462'
p443
(lp444
g53
ag105
asS'1430382'
p445
(lp446
S'1.6.2.2'
p447
asS'1167916'
p448
(lp449
g4
asS'431392'
p450
(lp451
g30
asS'1154529'
p452
(lp453
g356
ag189
aS'1.5.2.4'
p454
asS'807330'
p455
(lp456
g4
ag30
ag12
asS'515277'
p457
(lp458
S'1.4.1.4'
p459
asS'1937656'
p460
(lp461
g135
asS'1589654'
p462
(lp463
g13
asS'1036391'
p464
(lp465
g329
ag126
aS'1.15.1.2'
p466
aS'1.1.4.2'
p467
ag61
ag15
ag43
aS'1.5.1.1'
p468
aS'1.5.2.3'
p469
aS'1.1.2.4'
p470
aS'1.5.3.7'
p471
ag111
ag200
asS'277016'
p472
(lp473
g53
asS'697433'
p474
(lp475
g4
asS'440384'
p476
(lp477
g30
asS'1982817'
p478
(lp479
g335
ag200
aS'1.4.2.1'
p480
asS'1603163'
p481
(lp482
g105
ag147
asS'1165990'
p483
(lp484
g4
aS'1.1.1.1'
p485
asS'1675830'
p486
(lp487
g105
ag281
ag216
aS'1.2.2.1'
p488
aS'1.4.2.4'
p489
ag459
ag138
aS'1.6.2.1'
p490
ag287
aS'1.4.1.5'
p491
aS'1.12.2.4'
p492
aS'1.1.1.1'
p493
ag454
aS'1.2.2.5'
p494
aS'1.9.2.1'
p495
aS'1.4.1.13'
p496
aS'1.1.4.4'
p497
ag329
aS'1.4.7.1'
p498
aS'1.6.2.3'
p499
aS'8.1.4.2'
p500
aS'1.4.2.3'
p501
aS'1.2.2.6'
p502
aS'1.1.2.4'
p503
aS'1.5.2.5'
p504
ag69
aS'1.9.3.2'
p505
aS'8.1.2.3'
p506
ag211
aS'1.4.1.6'
p507
aS'1.1.2.1'
p508
ag193
aS'1.6.2.2'
p509
ag219
aS'1.4.1.1'
p510
asS'1976899'
p511
(lp512
S'1.4.2.2'
p513
asS'2096132'
p514
(lp515
S'1.11.2.2'
p516
asS'1557651'
p517
(lp518
g30
asS'1074151'
p519
(lp520
g67
asS'1164660'
p521
(lp522
S'1.4.4.3'
p523
asS'1343543'
p524
(lp525
g4
asS'406961'
p526
(lp527
g30
asS'371832'
p528
(lp529
g53
asS'609275'
p530
(lp531
g4
ag459
aS'1.12.4.1'
p532
ag126
ag30
aS'8.1.3.4'
p533
ag320
ag70
asS'948503'
p534
(lp535
g4
asS'877945'
p536
(lp537
g4
asS'1642233'
p538
(lp539
g30
ag4
asS'1768937'
p540
(lp541
g30
ag4
asS'1536952'
p542
(lp543
S'1.1.4.1'
p544
ag288
asS'1255824'
p545
(lp546
g30
aS'1.4.2.3'
p547
asS'2034596'
p548
(lp549
g4
asS'328269'
p550
(lp551
g4
asS'1526061'
p552
(lp553
g30
asS'1361905'
p554
(lp555
g4
asS'810083'
p556
(lp557
g4
asS'235820'
p558
(lp559
g4
asS'1221113'
p560
(lp561
g61
ag83
asS'1431702'
p562
(lp563
g212
asS'1948555'
p564
(lp565
g270
asS'1251724'
p566
(lp567
g147
asS'753143'
p568
(lp569
g372
asS'1734689'
p570
(lp571
g72
asS'211543'
p572
(lp573
g30
asS'1173798'
p574
(lp575
g36
asS'1692199'
p576
(lp577
g459
asS'1116840'
p578
(lp579
g4
asS'459273'
p580
(lp581
S'1.6.2.2'
p582
asS'192439'
p583
(lp584
g216
aS'1.9.3.2'
p585
ag190
ag60
asS'589560'
p586
(lp587
g4
asS'1023434'
p588
(lp589
g4
ag363
ag7
asS'884038'
p590
(lp591
g30
ag4
ag135
aS'1.11.1.1'
p592
asS'1484250'
p593
(lp594
g488
ag485
ag197
aS'1.1.4.2'
p595
aS'1.4.1.4'
p596
ag329
ag30
ag118
asS'467084'
p597
(lp598
g90
ag131
ag194
aS'1.4.1.6'
p599
aS'1.4.2.4'
p600
ag126
ag471
ag233
ag224
aS'1.4.1.5'
p601
ag4
aS'8.1.2.3'
p602
ag544
aS'1.2.3.1'
p603
ag329
aS'1.4.2.3'
p604
ag357
ag15
aS'1.2.2.2'
p605
aS'1.10.3.3'
p606
asS'1620492'
p607
(lp608
S'1.1.1.5'
p609
asS'1620365'
p610
(lp611
g161
asS'1978100'
p612
(lp613
S'1.4.2.4'
p614
asS'1899094'
p615
(lp616
S'1.2.2.1'
p617
asS'798029'
p618
(lp619
g4
asS'1128515'
p620
(lp621
g4
asS'826118'
p622
(lp623
g331
asS'725836'
p624
(lp625
g4
aS'1.4.1.1'
p626
ag219
aS'1.4.1.4'
p627
aS'1.4.2.3'
p628
ag84
aS'1.12.4.5'
p629
ag288
ag85
aS'1.1.2.5'
p630
ag30
asS'1236819'
p631
(lp632
g328
asS'641542'
p633
(lp634
g4
asS'1071332'
p635
(lp636
g192
asS'2076485'
p637
(lp638
g30
asS'1287293'
p639
(lp640
g4
asS'1695275'
p641
(lp642
g212
asS'1704743'
p643
(lp644
S'1.4.9.2'
p645
asS'1290832'
p646
(lp647
g141
ag459
asS'1769458'
p648
(lp649
g30
asS'1892328'
p650
(lp651
g4
asS'636459'
p652
(lp653
g126
asS'1764294'
p654
(lp655
g523
ag190
aS'1.4.1.5'
p656
aS'1.4.9.2'
p657
ag116
aS'1.4.1.1'
p658
ag262
aS'1.5.1.1'
p659
ag216
ag544
aS'4.1.5.1'
p660
aS'4.1.8.1'
p661
aS'4.1.5.4'
p662
ag30
ag617
aS'1.3.3.2'
p663
aS'1.4.1.4'
p664
ag13
aS'1.1.2.1'
p665
ag189
ag110
aS'8.1.7.1'
p666
aS'1.11.4.1'
p667
aS'1.1.2.2'
p668
aS'1.1.1.2'
p669
ag209
ag85
ag213
ag356
ag147
asS'1869474'
p670
(lp671
g161
asS'1876617'
p672
(lp673
g4
asS'1554874'
p674
(lp675
g433
aS'1.4.1.5'
p676
ag36
ag329
asS'1485783'
p677
(lp678
g4
asS'1279864'
p679
(lp680
g212
asS'288452'
p681
(lp682
g105
asS'1038728'
p683
(lp684
g35
ag53
ag7
aS'1.7.1.4'
p685
asS'717525'
p686
(lp687
g200
asS'187086'
p688
(lp689
g544
ag14
ag663
aS'1.14.2.1'
p690
aS'1.7.1.4'
p691
aS'1.6.2.2'
p692
aS'1.4.1.4'
p693
aS'1.1.4.2'
p694
aS'1.4.1.5'
p695
aS'1.4.2.3'
p696
ag498
aS'1.1.2.1'
p697
aS'1.4.2.1'
p698
aS'8.1.3.1'
p699
aS'1.4.2.2'
p700
ag267
ag81
aS'8.2.2.2'
p701
asS'1354407'
p702
(lp703
g4
asS'747204'
p704
(lp705
g161
asS'634006'
p706
(lp707
g4
asS'1501334'
p708
(lp709
g4
aS'1.4.1.2'
p710
ag147
ag372
asS'924939'
p711
(lp712
g4
ag601
asS'1355162'
p713
(lp714
g4
asS'1665395'
p715
(lp716
g30
asS'573442'
p717
(lp718
g4
ag329
ag459
aS'1.4.2.4'
p719
asS'2037464'
p720
(lp721
g4
asS'825474'
p722
(lp723
g4
ag25
ag371
aS'1.4.1.1'
p724
aS'1.4.2.4'
p725
ag73
asS'1336655'
p726
(lp727
g25
asS'689638'
p728
(lp729
g4
asS'838462'
p730
(lp731
g190
ag209
ag454
ag523
ag105
ag498
ag30
ag212
ag126
aS'1.15.1.2'
p732
ag459
asS'674889'
p733
(lp734
g9
ag53
asS'199823'
p735
(lp736
g4
ag360
asS'625657'
p737
(lp738
g219
ag212
ag494
asS'1243369'
p739
(lp740
g67
asS'1428200'
p741
(lp742
g75
asS'1612518'
p743
(lp744
g30
asS'1748611'
p745
(lp746
S'1.4.2.2'
p747
ag335
asS'489416'
p748
(lp749
g4
asS'1070464'
p750
(lp751
g4
ag36
asS'2003205'
p752
(lp753
g161
asS'1346399'
p754
(lp755
g30
ag4
asS'231619'
p756
(lp757
g75
asS'1718704'
p758
(lp759
g281
asS'2040389'
p760
(lp761
g4
asS'1193968'
p762
(lp763
g48
asS'1743947'
p764
(lp765
g67
ag13
asS'614662'
p766
(lp767
g406
asS'1629321'
p768
(lp769
g4
asS'1531866'
p770
(lp771
g112
asS'1007882'
p772
(lp773
g30
asS'1755759'
p774
(lp775
g30
asS'425259'
p776
(lp777
g105
ag22
ag141
asS'1014873'
p778
(lp779
g12
ag126
aS'1.4.2.3'
p780
asS'1518169'
p781
(lp782
g8
asS'1765579'
p783
(lp784
g74
asS'366771'
p785
(lp786
g4
ag284
ag161
ag141
asS'372785'
p787
(lp788
g4
ag30
asS'1679917'
p789
(lp790
g4
ag30
aS'1.6.2.4'
p791
ag161
aS'1.5.2.1'
p792
ag212
asS'2042604'
p793
(lp794
S'1.11.2.1'
p795
asS'1904188'
p796
(lp797
g4
ag30
ag75
asS'642205'
p798
(lp799
g4
asS'1451442'
p800
(lp801
g4
asS'1474072'
p802
(lp803
g4
ag224
ag30
asS'1156224'
p804
(lp805
g36
ag329
aS'1.4.2.3'
p806
aS'1.4.2.1'
p807
ag161
ag105
ag151
ag284
aS'1.4.1.5'
p808
asS'339990'
p809
(lp810
g4
ag311
ag36
asS'1013909'
p811
(lp812
g335
asS'240018'
p813
(lp814
g363
asS'366172'
p815
(lp816
g4
asS'576662'
p817
(lp818
g459
asS'1765997'
p819
(lp820
g328
ag10
ag200
ag523
asS'835053'
p821
(lp822
g4
asS'247661'
p823
(lp824
g4
asS'1152487'
p825
(lp826
S'1.4.1.5'
p827
ag4
ag30
ag281
ag659
asS'1697233'
p828
(lp829
g161
asS'873238'
p830
(lp831
g138
aS'1.4.2.2'
p832
ag224
ag126
aS'1.4.2.3'
p833
ag808
ag85
ag147
asS'261871'
p834
(lp835
g74
asS'872639'
p836
(lp837
g151
aS'1.4.2.3'
p838
ag269
asS'1954640'
p839
(lp840
S'1.4.1.5'
p841
aS'1.4.2.3'
p842
ag246
ag43
aS'1.9.2.1'
p843
ag138
aS'1.4.2.4'
p844
aS'1.1.2.5'
p845
aS'1.4.1.6'
p846
ag188
ag694
aS'1.1.2.1'
p847
aS'1.4.9.2'
p848
aS'1.4.2.2'
p849
asS'579778'
p850
(lp851
S'1.4.1.2'
p852
asS'443942'
p853
(lp854
g4
ag110
ag13
ag459
ag126
asS'732127'
p855
(lp856
g7
asS'348629'
p857
(lp858
g36
asS'1427194'
p859
(lp860
g75
ag161
asS'1712748'
p861
(lp862
g53
asS'1079301'
p863
(lp864
g4
asS'1782431'
p865
(lp866
g4
asS'791584'
p867
(lp868
g105
asS'980335'
p869
(lp870
g138
asS'1540221'
p871
(lp872
g4
asS'940586'
p873
(lp874
g719
ag105
ag808
aS'1.4.1.8'
p875
ag281
ag36
ag138
asS'118318'
p876
(lp877
g4
ag116
aS'1.7.1.1'
p878
ag693
asS'340703'
p879
(lp880
g4
aS'1.1.2.3'
p881
aS'1.2.2.1'
p882
ag119
ag115
aS'1.5.2.1'
p883
ag330
ag216
aS'1.6.2.1'
p884
ag875
ag70
ag466
aS'1.4.1.2'
p885
ag827
aS'1.4.3.2'
p886
ag65
aS'1.1.4.4'
p887
ag724
ag331
ag166
ag113
aS'1.11.1.1'
p888
ag268
aS'1.4.1.4'
p889
ag366
ag13
ag138
ag284
ag471
aS'1.5.2.2'
p890
aS'1.8.3.3'
p891
ag533
ag112
ag356
ag795
ag209
ag846
aS'1.7.1.4'
p892
aS'1.11.5.3'
p893
ag30
aS'1.9.3.3'
p894
ag35
ag498
ag290
aS'1.6.2.2'
p895
aS'1.5.1.1'
p896
aS'1.1.2.5'
p897
aS'1.14.1.1'
p898
aS'4.2.5.4'
p899
ag669
aS'1.13.1.2'
p900
aS'1.9.2.5'
p901
ag219
ag213
aS'1.1.4.1'
p902
asS'2068121'
p903
(lp904
g9
ag329
asS'820221'
p905
(lp906
g4
asS'1859510'
p907
(lp908
g30
asS'629550'
p909
(lp910
g4
asS'764850'
p911
(lp912
g30
asS'927737'
p913
(lp914
S'1.4.1.4'
p915
asS'1264645'
p916
(lp917
g4
asS'454489'
p918
(lp919
g131
asS'543302'
p920
(lp921
g246
aS'1.4.2.1'
p922
ag30
ag141
asS'1965418'
p923
(lp924
g335
asS'2018945'
p925
(lp926
g141
asS'1128614'
p927
(lp928
g74
asS'589795'
p929
(lp930
g4
asS'790182'
p931
(lp932
g30
asS'479232'
p933
(lp934
g249
asS'414942'
p935
(lp936
S'1.2.2.5'
p937
asS'1278954'
p938
(lp939
g13
asS'513677'
p940
(lp941
g4
asS'1999438'
p942
(lp943
g161
asS'399555'
p944
(lp945
g4
asS'1364341'
p946
(lp947
g4
asS'1953918'
p948
(lp949
g79
ag141
asS'818373'
p950
(lp951
g4
asS'157653'
p952
(lp953
g4
asS'1574930'
p954
(lp955
g4
ag13
ag7
aS'1.4.3.5'
p956
ag311
asS'1326418'
p957
(lp958
g4
ag30
ag48
asS'920086'
p959
(lp960
g4
asS'1480306'
p961
(lp962
S'1.6.2.1'
p963
asS'960910'
p964
(lp965
g30
asS'1961235'
p966
(lp967
g83
asS'415701'
p968
(lp969
g4
asS'2006434'
p970
(lp971
S'1.7.1.5'
p972
asS'1343815'
p973
(lp974
g922
asS'516310'
p975
(lp976
g7
asS'178270'
p977
(lp978
g48
asS'731022'
p979
(lp980
g4
asS'1725775'
p981
(lp982
g30
ag4
asS'1139461'
p983
(lp984
g4
asS'1501885'
p985
(lp986
S'1.4.2.2'
p987
asS'935151'
p988
(lp989
g4
ag190
aS'1.4.2.2'
p990
asS'1461141'
p991
(lp992
g4
asS'1790333'
p993
(lp994
g4
asS'1962836'
p995
(lp996
g10
ag882
ag249
ag328
ag13
ag216
ag523
ag53
ag262
ag116
ag118
ag212
ag886
ag792
ag67
ag496
asS'108441'
p997
(lp998
g30
asS'1730572'
p999
(lp1000
g75
asS'1561172'
p1001
(lp1002
g11
asS'2083569'
p1003
(lp1004
g4
ag30
asS'302186'
p1005
(lp1006
g30
asS'186703'
p1007
(lp1008
g126
asS'1947680'
p1009
(lp1010
S'1.4.2.1'
p1011
ag287
ag371
ag4
aS'1.11.1.2'
p1012
ag298
ag893
aS'1.4.1.4'
p1013
ag200
aS'1.2.2.1'
p1014
ag700
aS'1.2.2.2'
p1015
ag875
aS'1.1.2.2'
p1016
ag666
aS'1.4.2.3'
p1017
aS'1.2.1'
p1018
aS'1.11.2.4'
p1019
aS'1.1.4.1'
p1020
aS'1.5.2.1'
p1021
ag290
ag592
ag669
aS'1.12.4.5'
p1022
ag471
ag892
ag213
ag191
asS'928365'
p1023
(lp1024
g4
asS'1803667'
p1025
(lp1026
g4
ag459
asS'2027694'
p1027
(lp1028
g4
asS'2038868'
p1029
(lp1030
g192
ag281
ag363
ag105
ag36
ag97
asS'1684751'
p1031
(lp1032
g105
asS'1315641'
p1033
(lp1034
g190
asS'1614118'
p1035
(lp1036
g4
aS'1.4.2.2'
p1037
aS'8.1.4.2'
p1038
ag288
ag466
ag60
asS'515832'
p1039
(lp1040
g4
ag161
asS'1951519'
p1041
(lp1042
g4
ag36
ag329
ag67
ag197
ag151
ag311
asS'1123698'
p1043
(lp1044
g194
aS'1.4.1.5'
p1045
ag79
ag80
ag990
ag112
asS'1444288'
p1046
(lp1047
g4
asS'1228966'
p1048
(lp1049
g4
asS'1011619'
p1050
(lp1051
g4
ag626
ag1038
ag105
ag657
asS'465507'
p1052
(lp1053
g4
ag126
asS'1766264'
p1054
(lp1055
g4
asS'897331'
p1056
(lp1057
g406
ag224
ag329
ag83
ag12
aS'1.4.1.5'
p1058
ag111
aS'8.2.5.2'
p1059
ag36
aS'8.1.4.1'
p1060
ag532
ag724
aS'1.1.2.1'
p1061
aS'1.2.2.1'
p1062
aS'1.5.2.1'
p1063
ag592
ag118
ag659
ag213
aS'1.7.1.1'
p1064
aS'1.4.2.4'
p1065
asS'1178656'
p1066
(lp1067
g11
asS'787631'
p1068
(lp1069
g4
asS'1533432'
p1070
(lp1071
g4
asS'959827'
p1072
(lp1073
g30
ag335
asS'1271388'
p1074
(lp1075
g4
asS'1257921'
p1076
(lp1077
g102
asS'151367'
p1078
(lp1079
g131
asS'862330'
p1080
(lp1081
S'1.7.1.1'
p1082
asS'216030'
p1083
(lp1084
g75
asS'301517'
p1085
(lp1086
g224
asS'2012384'
p1087
(lp1088
g36
asS'1857604'
p1089
(lp1090
g30
ag61
asS'463137'
p1091
(lp1092
g61
asS'1974966'
p1093
(lp1094
g4
asS'1644308'
p1095
(lp1096
g990
ag8
ag141
ag138
asS'1688041'
p1097
(lp1098
g4
asS'740585'
p1099
(lp1100
g4
asS'1434297'
p1101
(lp1102
g4
ag666
ag151
ag7
ag140
ag30
ag138
ag459
ag281
ag357
ag13
ag116
asS'1722763'
p1103
(lp1104
g53
ag459
asS'1227353'
p1105
(lp1106
g4
ag161
asS'1875852'
p1107
(lp1108
g190
asS'590603'
p1109
(lp1110
S'1.4.2.2'
p1111
aS'1.11.2.1'
p1112
asS'463902'
p1113
(lp1114
g4
ag36
asS'1759434'
p1115
(lp1116
g105
asS'2092694'
p1117
(lp1118
g126
asS'1228744'
p1119
(lp1120
g4
asS'623776'
p1121
(lp1122
g459
ag375
asS'1319729'
p1123
(lp1124
g161
asS'859186'
p1125
(lp1126
g30
asS'214427'
p1127
(lp1128
g331
asS'1927729'
p1129
(lp1130
g875
asS'1672646'
p1131
(lp1132
g82
asS'632571'
p1133
(lp1134
g4
asS'1195015'
p1135
(lp1136
g30
asS'1477089'
p1137
(lp1138
g30
asS'1589672'
p1139
(lp1140
g30
asS'784429'
p1141
(lp1142
g72
asS'2065328'
p1143
(lp1144
g30
asS'925292'
p1145
(lp1146
g4
asS'2035738'
p1147
(lp1148
g200
asS'845844'
p1149
(lp1150
g30
ag4
asS'1364434'
p1151
(lp1152
g4
asS'351562'
p1153
(lp1154
g190
asS'556871'
p1155
(lp1156
g212
asS'618942'
p1157
(lp1158
g375
asS'942746'
p1159
(lp1160
g224
asS'1719347'
p1161
(lp1162
g4
ag695
ag249
asS'1991065'
p1163
(lp1164
g459
asS'2035088'
p1165
(lp1166
g74
asS'448261'
p1167
(lp1168
S'1.6.2.4'
p1169
ag1037
ag332
ag363
ag75
asS'1758677'
p1170
(lp1171
g4
asS'737549'
p1172
(lp1173
g105
ag61
asS'112816'
p1174
(lp1175
g61
asS'690575'
p1176
(lp1177
g75
asS'357221'
p1178
(lp1179
g4
ag459
ag53
ag375
ag85
ag48
asS'1594668'
p1180
(lp1181
g75
asS'802505'
p1182
(lp1183
g212
ag138
ag30
ag617
asS'660133'
p1184
(lp1185
g4
asS'1905139'
p1186
(lp1187
g138
asS'682703'
p1188
(lp1189
g523
asS'163779'
p1190
(lp1191
g200
asS'1599169'
p1192
(lp1193
g190
asS'190782'
p1194
(lp1195
g166
ag61
ag224
asS'1872799'
p1196
(lp1197
g331
asS'1940475'
p1198
(lp1199
g4
asS'627523'
p1200
(lp1201
g189
asS'1091116'
p1202
(lp1203
g8
ag4
ag523
asS'152274'
p1204
(lp1205
S'1.4.1.5'
p1206
aS'1.7.1.4'
p1207
ag875
asS'1346227'
p1208
(lp1209
g4
asS'1904712'
p1210
(lp1211
g4
ag193
ag53
asS'1309105'
p1212
(lp1213
g7
asS'1579865'
p1214
(lp1215
g4
asS'759640'
p1216
(lp1217
g4
asS'1367185'
p1218
(lp1219
g4
ag72
asS'741142'
p1220
(lp1221
g4
asS'1268013'
p1222
(lp1223
g4
ag140
asS'534887'
p1224
(lp1225
S'1.2.2.2'
p1226
asS'1714759'
p1227
(lp1228
S'1.10.3.2'
p1229
asS'1006436'
p1230
(lp1231
g4
ag138
ag48
ag30
ag111
ag43
asS'1771279'
p1232
(lp1233
g121
asS'1023700'
p1234
(lp1235
g603
ag488
asS'1455977'
p1236
(lp1237
g85
aS'1.6.2.2'
p1238
ag288
ag386
ag53
aS'1.6.2.1'
p1239
ag219
ag264
aS'1.4.1.3'
p1240
aS'1.1.4.1'
p1241
aS'1.12.4.5'
p1242
asS'1491250'
p1243
(lp1244
g4
ag1017
ag956
ag200
asS'1186191'
p1245
(lp1246
g262
asS'959823'
p1247
(lp1248
g4
asS'911609'
p1249
(lp1250
g4
ag249
aS'1.4.1.4'
p1251
asS'804682'
p1252
(lp1253
g4
ag884
asS'225401'
p1254
(lp1255
g4
asS'599736'
p1256
(lp1257
g459
ag281
ag320
ag22
ag67
ag7
asS'1886135'
p1258
(lp1259
g284
asS'1045594'
p1260
(lp1261
g11
ag30
ag188
ag135
ag249
aS'1.4.2.4'
p1262
ag433
ag189
ag356
ag113
asS'156995'
p1263
(lp1264
S'1.6.1.1'
p1265
asS'433611'
p1266
(lp1267
g53
asS'1744036'
p1268
(lp1269
g4
asS'1439097'
p1270
(lp1271
S'1.7.1.1'
p1272
ag8
ag212
asS'743016'
p1273
(lp1274
g4
asS'568911'
p1275
(lp1276
g4
asS'323881'
p1277
(lp1278
g7
asS'1280446'
p1279
(lp1280
g433
asS'452756'
p1281
(lp1282
g330
ag197
asS'954053'
p1283
(lp1284
g161
asS'243333'
p1285
(lp1286
g30
asS'867227'
p1287
(lp1288
g485
asS'645749'
p1289
(lp1290
g780
ag7
ag617
ag371
ag386
aS'1.2.2.5'
p1291
asS'1279244'
p1292
(lp1293
g4
ag262
aS'1.8.3.6'
p1294
ag189
ag659
ag459
aS'1.13.1.1'
p1295
ag666
ag75
aS'1.9.2.5'
p1296
ag328
aS'1.5.2.4'
p1297
ag248
aS'1.2.2.1'
p1298
aS'8.1.2.5'
p1299
aS'4.2.4.1'
p1300
ag30
ag466
ag890
asS'607071'
p1301
(lp1302
g249
asS'1284109'
p1303
(lp1304
g4
asS'1144745'
p1305
(lp1306
g161
ag61
asS'933810'
p1307
(lp1308
g397
asS'1575145'
p1309
(lp1310
g4
ag645
ag523
aS'8.1.3.3'
p1311
ag161
aS'8.2.5.1'
p1312
ag498
ag795
ag61
ag246
ag30
aS'1.11.3.3'
p1313
ag212
ag43
ag832
ag471
aS'1.4.2.1'
p1314
ag80
asS'1315078'
p1315
(lp1316
g111
aS'8.2.3.3'
p1317
asS'1401938'
p1318
(lp1319
g126
asS'280538'
p1320
(lp1321
g126
asS'1663152'
p1322
(lp1323
g719
asS'634110'
p1324
(lp1325
g13
asS'417737'
p1326
(lp1327
g13
ag246
ag328
asS'882442'
p1328
(lp1329
g224
asS'1147725'
p1330
(lp1331
g61
ag190
asS'1850815'
p1332
(lp1333
g603
asS'814691'
p1334
(lp1335
g192
asS'685903'
p1336
(lp1337
g4
ag102
ag695
ag249
asS'150350'
p1338
(lp1339
g4
ag459
asS'1587042'
p1340
(lp1341
g48
ag375
asS'774464'
p1342
(lp1343
S'1.4.9.2'
p1344
asS'1012679'
p1345
(lp1346
g53
asS'1025807'
p1347
(lp1348
g4
asS'283026'
p1349
(lp1350
g249
asS'1350045'
p1351
(lp1352
g72
ag30
asS'402129'
p1353
(lp1354
g4
asS'582821'
p1355
(lp1356
g4
ag112
ag852
ag36
aS'1.4.2.3'
p1357
ag601
asS'2054167'
p1358
(lp1359
S'1.4.2.1'
p1360
ag53
ag189
ag72
asS'928191'
p1361
(lp1362
g4
asS'103618'
p1363
(lp1364
g4
asS'858971'
p1365
(lp1366
g4
asS'575738'
p1367
(lp1368
g4
asS'527562'
p1369
(lp1370
g36
asS'1249869'
p1371
(lp1372
g85
ag10
ag97
ag289
ag138
ag161
ag212
ag224
ag466
ag792
ag61
ag13
ag194
ag216
ag485
ag284
ag75
ag4
ag667
ag406
ag15
ag116
ag69
ag498
ag1059
ag1311
ag65
ag724
ag187
aS'1.5.1.1'
p1373
aS'1.4.4.1'
p1374
aS'1.4.1.8'
p1375
ag1294
aS'1.11.5.3'
p1376
ag166
ag471
ag890
ag35
asS'776317'
p1377
(lp1378
g138
asS'1231515'
p1379
(lp1380
g30
asS'1059350'
p1381
(lp1382
g4
asS'130336'
p1383
(lp1384
g987
asS'166449'
p1385
(lp1386
g459
asS'672693'
p1387
(lp1388
g4
asS'1928062'
p1389
(lp1390
g189
ag141
ag209
ag13
ag188
ag1294
asS'1376758'
p1391
(lp1392
g97
asS'999667'
p1393
(lp1394
g459
asS'253910'
p1395
(lp1396
g61
aS'1.4.1.4'
p1397
asS'579001'
p1398
(lp1399
g4
asS'890583'
p1400
(lp1401
g4
asS'1762550'
p1402
(lp1403
g4
asS'1399050'
p1404
(lp1405
g4
asS'2002132'
p1406
(lp1407
g53
ag140
asS'857553'
p1408
(lp1409
g4
ag523
asS'150135'
p1410
(lp1411
g105
asS'1492085'
p1412
(lp1413
g386
ag329
asS'125669'
p1414
(lp1415
g30
ag4
aS'1.1.2.5'
p1416
asS'763398'
p1417
(lp1418
g224
asS'909699'
p1419
(lp1420
g4
asS'1727703'
p1421
(lp1422
g53
asS'1249460'
p1423
(lp1424
g75
asS'766387'
p1425
(lp1426
g4
ag224
asS'200292'
p1427
(lp1428
g4
asS'1584065'
p1429
(lp1430
g1082
aS'1.5.3.7'
p1431
ag469
aS'1.2.2.2'
p1432
ag1297
ag666
aS'1.6.2.2'
p1433
aS'1.11.2.2'
p1434
ag602
aS'1.8.1.1'
p1435
ag110
ag233
ag4
ag1014
aS'1.6.2.3'
p1436
ag90
ag893
asS'762546'
p1437
(lp1438
g190
asS'597047'
p1439
(lp1440
g328
ag284
ag110
aS'8.1.3.4'
p1441
ag780
ag126
ag614
ag459
ag22
ag7
ag659
aS'8.1.2.4'
p1442
asS'332302'
p1443
(lp1444
g30
asS'140479'
p1445
(lp1446
g30
asS'559339'
p1447
(lp1448
g1058
ag36
asS'836352'
p1449
(lp1450
g331
asS'251196'
p1451
(lp1452
g30
aS'1.5.2.4'
p1453
asS'974862'
p1454
(lp1455
g4
ag605
aS'1.1.4.4'
p1456
aS'1.3.3.2'
p1457
ag75
ag13
aS'1.5.2.3'
p1458
ag262
aS'4.2.1.2'
p1459
ag1014
ag112
ag459
aS'1.3.1.1'
p1460
ag268
ag725
ag61
ag890
ag7
ag792
ag248
ag1376
ag216
aS'1.4.1.1'
p1461
asS'237670'
p1462
(lp1463
S'1.6.2.1'
p1464
aS'1.6.2.2'
p1465
aS'1.6.2.3'
p1466
aS'1.6.1.1'
p1467
ag1432
ag270
asS'2016897'
p1468
(lp1469
g105
asS'2083967'
p1470
(lp1471
g13
asS'1883195'
p1472
(lp1473
g135
ag459
ag131
ag200
ag725
ag335
asS'349111'
p1474
(lp1475
g197
asS'113442'
p1476
(lp1477
g4
asS'763574'
p1478
(lp1479
g4
asS'1456949'
p1480
(lp1481
g4
asS'1179678'
p1482
(lp1483
g329
asS'571153'
p1484
(lp1485
g4
asS'701040'
p1486
(lp1487
g1015
asS'1154997'
p1488
(lp1489
g131
ag25
asS'102750'
p1490
(lp1491
g197
ag97
ag161
aS'1.1.1.1'
p1492
asS'999878'
p1493
(lp1494
g658
ag111
aS'1.2.2.2'
p1495
ag7
ag110
ag281
ag147
ag78
ag485
ag212
ag12
ag13
ag269
aS'1.6.2.2'
p1496
ag9
ag893
asS'362981'
p1497
(lp1498
g4
ag139
asS'1091878'
p1499
(lp1500
g140
asS'948395'
p1501
(lp1502
g126
asS'685958'
p1503
(lp1504
g4
asS'1184122'
p1505
(lp1506
g335
asS'601763'
p1507
(lp1508
g30
asS'296253'
p1509
(lp1510
g4
ag152
asS'1470992'
p1511
(lp1512
g224
asS'1699216'
p1513
(lp1514
S'8.1.4.2'
p1515
ag147
ag331
aS'1.4.1.5'
p1516
ag233
ag1017
aS'1.2.2.1'
p1517
ag193
ag224
ag10
ag4
aS'1.1.1.1'
p1518
ag139
ag1037
ag433
ag270
ag724
ag211
aS'1.1.2.5'
p1519
ag922
ag84
aS'1.5.2.1'
p1520
ag30
ag893
ag329
aS'1.4.3.7'
p1521
ag110
asS'1564785'
p1522
(lp1523
g7
ag75
asS'1986522'
p1524
(lp1525
g1064
asS'1944063'
p1526
(lp1527
g30
asS'1750599'
p1528
(lp1529
g4
aS'1.4.2.2'
p1530
asS'2093460'
p1531
(lp1532
g138
ag212
ag1064
ag263
asS'1664090'
p1533
(lp1534
g4
asS'1697682'
p1535
(lp1536
g105
asS'1596718'
p1537
(lp1538
g30
ag328
asS'1826191'
p1539
(lp1540
g4
asS'1877792'
p1541
(lp1542
g4
ag893
asS'1281037'
p1543
(lp1544
g4
asS'1100328'
p1545
(lp1546
g719
ag97
ag4
asS'363836'
p1547
(lp1548
g1465
asS'1232989'
p1549
(lp1550
g4
ag30
ag1496
asS'1534758'
p1551
(lp1552
S'1.4.1.2'
p1553
aS'1.4.1.5'
p1554
ag833
ag4
aS'1.4.2.4'
p1555
ag75
asS'1889835'
p1556
(lp1557
g53
asS'216116'
p1558
(lp1559
g1553
asS'1139283'
p1560
(lp1561
g15
asS'1401924'
p1562
(lp1563
g4
asS'1081392'
p1564
(lp1565
g4
asS'1531729'
p1566
(lp1567
g601
asS'291220'
p1568
(lp1569
g4
ag30
asS'1970139'
p1570
(lp1571
g4
asS'453369'
p1572
(lp1573
g219
ag386
aS'1.4.2.2'
p1574
ag60
ag806
ag601
asS'1168914'
p1575
(lp1576
g30
asS'832847'
p1577
(lp1578
g13
ag7
ag504
asS'833534'
p1579
(lp1580
S'1.4.4.3'
p1581
ag14
ag1272
ag188
ag290
ag496
ag147
ag329
ag189
ag875
ag667
aS'1.1.2.5'
p1582
ag896
ag1016
aS'8.1.1.3'
p1583
aS'8.2.2.1'
p1584
ag30
ag1294
ag111
asS'2065964'
p1585
(lp1586
g30
ag4
asS'738077'
p1587
(lp1588
g893
ag141
asS'549594'
p1589
(lp1590
S'1.6.2.3'
p1591
aS'1.6.2.4'
p1592
asS'1109625'
p1593
(lp1594
g795
asS'1147110'
p1595
(lp1596
g112
asS'815938'
p1597
(lp1598
g676
ag329
ag325
ag224
ag1262
asS'1744372'
p1599
(lp1600
g4
asS'1744378'
p1601
(lp1602
S'1.6.2.1'
p1603
asS'1545632'
p1604
(lp1605
g75
asS'1347910'
p1606
(lp1607
g470
aS'1.1.4.4'
p1608
aS'1.1.3.2'
p1609
ag329
aS'1.4.2.1'
p1610
asS'2095366'
p1611
(lp1612
g459
asS'1787892'
p1613
(lp1614
g61
ag67
asS'1007447'
p1615
(lp1616
g161
asS'735580'
p1617
(lp1618
g67
ag288
asS'305863'
p1619
(lp1620
g4
ag161
ag288
ag142
ag30
ag290
ag356
ag48
ag332
asS'339568'
p1621
(lp1622
g806
asS'282365'
p1623
(lp1624
g719
ag112
aS'1.4.2.1'
p1625
ag200
asS'1827808'
p1626
(lp1627
g85
asS'1771647'
p1628
(lp1629
g4
asS'1276170'
p1630
(lp1631
g4
asS'979740'
p1632
(lp1633
g4
asS'1507879'
p1634
(lp1635
g10
ag12
ag67
asS'1324843'
p1636
(lp1637
g30
asS'1820782'
p1638
(lp1639
g328
asS'1354301'
p1640
(lp1641
g459
asS'1093353'
p1642
(lp1643
g22
ag189
asS'1369283'
p1644
(lp1645
g4
asS'1756241'
p1646
(lp1647
g36
ag281
ag4
ag284
ag189
ag111
ag152
ag105
ag83
ag485
aS'1.4.2.4'
p1648
ag67
asS'381618'
p1649
(lp1650
g4
asS'1486356'
p1651
(lp1652
g288
ag281
ag200
ag249
ag987
asS'151232'
p1653
(lp1654
g249
ag4
asS'776416'
p1655
(lp1656
g4
asS'1353435'
p1657
(lp1658
g53
asS'915851'
p1659
(lp1660
g105
ag141
ag67
asS'1722454'
p1661
(lp1662
g30
asS'839567'
p1663
(lp1664
g212
ag53
asS'1753776'
p1665
(lp1666
g269
ag30
asS'1231167'
p1667
(lp1668
g22
ag126
asS'1509869'
p1669
(lp1670
g30
asS'631772'
p1671
(lp1672
g4
asS'1421496'
p1673
(lp1674
g331
asS'1239750'
p1675
(lp1676
S'1.2.2.1'
p1677
ag15
aS'1.4.2.4'
p1678
ag1206
aS'1.4.2.1'
p1679
ag117
ag118
ag90
aS'1.5.2.4'
p1680
ag471
ag219
ag658
ag657
aS'1.5.2.1'
p1681
ag806
ag4
ag627
aS'1.1.3.2'
p1682
ag1016
ag886
ag900
aS'1.2.3.1'
p1683
ag892
asS'1985511'
p1684
(lp1685
g105
ag126
ag200
ag61
asS'1200863'
p1686
(lp1687
S'1.6.2.1'
p1688
asS'1708584'
p1689
(lp1690
g4
asS'878734'
p1691
(lp1692
g30
ag4
asS'1291782'
p1693
(lp1694
g4
ag161
ag7
ag12
ag147
asS'1151828'
p1695
(lp1696
g148
asS'824406'
p1697
(lp1698
g4
asS'257821'
p1699
(lp1700
g4
asS'1727714'
p1701
(lp1702
g504
ag357
ag1553
asS'2047824'
p1703
(lp1704
g126
asS'976129'
p1705
(lp1706
g4
aS'1.4.2.3'
p1707
aS'1.4.9.2'
p1708
asS'1654186'
p1709
(lp1710
g14
ag614
aS'1.5.2.4'
p1711
aS'1.13.7.1'
p1712
aS'8.2.5.2'
p1713
aS'1.5.1.2'
p1714
ag1112
asS'1066351'
p1715
(lp1716
g808
ag838
ag219
ag263
ag1465
ag1435
ag498
ag1553
ag832
ag1251
ag4
asS'1023389'
p1717
(lp1718
g30
asS'1014624'
p1719
(lp1720
g4
ag725
ag329
aS'1.11.2.3'
p1721
ag30
ag8
aS'1.2.2.1'
p1722
ag67
ag82
aS'1.11.2.4'
p1723
asS'510061'
p1724
(lp1725
g36
asS'1495487'
p1726
(lp1727
g4
asS'1098895'
p1728
(lp1729
g161
asS'1607579'
p1730
(lp1731
g4
asS'997475'
p1732
(lp1733
g4
asS'1387390'
p1734
(lp1735
g141
asS'546103'
p1736
(lp1737
g105
asS'289054'
p1738
(lp1739
g281
asS'498529'
p1740
(lp1741
g4
asS'1163404'
p1742
(lp1743
g74
asS'188807'
p1744
(lp1745
g126
asS'1180303'
p1746
(lp1747
g1239
asS'1882585'
p1748
(lp1749
g922
ag7
ag36
ag190
ag97
ag192
asS'1522963'
p1750
(lp1751
g4
ag138
asS'1079281'
p1752
(lp1753
g725
ag35
ag246
asS'1411070'
p1754
(lp1755
g4
ag902
ag48
ag140
aS'1.1.2.6'
p1756
ag64
ag8
ag67
ag116
ag138
aS'1.4.1.1'
p1757
aS'1.2.2.1'
p1758
ag210
ag224
ag459
ag219
ag732
ag284
ag356
ag187
ag25
ag35
ag110
ag454
ag216
aS'1.8.3.2'
p1759
aS'1.5.3.9'
p1760
asS'471964'
p1761
(lp1762
g281
asS'586873'
p1763
(lp1764
g233
asS'342238'
p1765
(lp1766
g126
ag105
asS'704216'
p1767
(lp1768
g13
asS'1334340'
p1769
(lp1770
g4
ag212
asS'525986'
p1771
(lp1772
g4
ag192
asS'1679502'
p1773
(lp1774
g219
asS'1574747'
p1775
(lp1776
S'1.6.2.4'
p1777
asS'1553179'
p1778
(lp1779
g4
ag375
asS'1435843'
p1780
(lp1781
g11
ag331
asS'718850'
p1782
(lp1783
g30
asS'521716'
p1784
(lp1785
g4
asS'1705606'
p1786
(lp1787
g138
ag4
asS'863417'
p1788
(lp1789
g4
asS'432188'
p1790
(lp1791
g30
asS'1915206'
p1792
(lp1793
g335
asS'412861'
p1794
(lp1795
g4
asS'1970923'
p1796
(lp1797
g4
asS'1886110'
p1798
(lp1799
S'1.4.2.2'
p1800
asS'548616'
p1801
(lp1802
g386
asS'453486'
p1803
(lp1804
g375
asS'1433906'
p1805
(lp1806
g30
asS'1296138'
p1807
(lp1808
g30
aS'1.4.2.2'
p1809
ag246
asS'710837'
p1810
(lp1811
g4
ag61
asS'335258'
p1812
(lp1813
g4
asS'1334763'
p1814
(lp1815
g459
asS'844304'
p1816
(lp1817
g200
ag332
aS'1.6.2.1'
p1818
ag485
ag53
ag605
ag22
ag335
ag459
ag105
ag138
aS'1.4.2.3'
p1819
ag454
ag212
ag189
ag1020
ag1435
aS'1.1.2.3'
p1820
aS'1.9.2.7'
p1821
aS'1.11.2.1'
p1822
asS'475015'
p1823
(lp1824
g263
ag270
ag1683
ag1465
ag4
ag1018
ag421
ag75
asS'1935843'
p1825
(lp1826
g4
asS'583350'
p1827
(lp1828
g141
asS'1012395'
p1829
(lp1830
g212
asS'502244'
p1831
(lp1832
g43
asS'1635205'
p1833
(lp1834
g200
asS'1045647'
p1835
(lp1836
g30
asS'229707'
p1837
(lp1838
g4
asS'834501'
p1839
(lp1840
g4
asS'1206829'
p1841
(lp1842
g288
ag523
ag67
ag30
ag7
ag627
asS'819491'
p1843
(lp1844
g30
asS'394224'
p1845
(lp1846
g454
asS'1957485'
p1847
(lp1848
g329
asS'1244752'
p1849
(lp1850
g248
ag212
asS'1947746'
p1851
(lp1852
g281
asS'1502894'
p1853
(lp1854
g30
asS'1394761'
p1855
(lp1856
g4
ag498
asS'457251'
p1857
(lp1858
g209
ag459
ag141
asS'1066653'
p1859
(lp1860
g141
ag485
ag7
ag13
ag53
ag4
ag523
ag356
asS'857725'
p1861
(lp1862
g43
ag603
aS'1.2.2.2'
p1863
ag16
aS'1.5.2.1'
p1864
ag1014
ag270
ag90
ag65
ag1712
aS'1.4.1.4'
p1865
ag211
aS'1.4.1.1'
p1866
aS'1.4.2.3'
p1867
aS'1.12.4.5'
p1868
asS'136361'
p1869
(lp1870
g36
asS'1027663'
p1871
(lp1872
g843
asS'1889795'
p1873
(lp1874
g30
asS'197185'
p1875
(lp1876
g138
aS'1.4.1.2'
p1877
ag134
aS'1.4.2.2'
p1878
aS'1.4.2.4'
p1879
aS'1.1.4.1'
p1880
ag270
asS'209993'
p1881
(lp1882
g4
asS'2037538'
p1883
(lp1884
g614
asS'664084'
p1885
(lp1886
g328
ag152
asS'917388'
p1887
(lp1888
g4
asS'1322696'
p1889
(lp1890
g4
ag7
asS'496042'
p1891
(lp1892
g747
asS'1371316'
p1893
(lp1894
g197
asS'1958733'
p1895
(lp1896
g4
asS'1428518'
p1897
(lp1898
g4
ag161
ag375
ag36
asS'1703123'
p1899
(lp1900
g4
aS'1.12.2.1'
p1901
ag43
asS'166460'
p1902
(lp1903
g281
ag11
ag105
asS'1780036'
p1904
(lp1905
g838
asS'560593'
p1906
(lp1907
g135
asS'813247'
p1908
(lp1909
g22
ag36
ag335
ag523
asS'1627626'
p1910
(lp1911
g459
asS'1568681'
p1912
(lp1913
g4
asS'737186'
p1914
(lp1915
g8
asS'315173'
p1916
(lp1917
S'1.6.2.2'
p1918
ag192
ag287
aS'1.9.2.1'
p1919
ag118
ag501
ag77
asS'1359782'
p1920
(lp1921
g4
asS'492699'
p1922
(lp1923
g36
asS'616089'
p1924
(lp1925
g30
ag4
ag67
ag110
asS'852064'
p1926
(lp1927
g4
asS'279363'
p1928
(lp1929
g7
asS'1974918'
p1930
(lp1931
g1465
asS'1050443'
p1932
(lp1933
S'1.1.2.6'
p1934
ag4
asS'281929'
p1935
(lp1936
g192
asS'1509522'
p1937
(lp1938
g4
asS'600194'
p1939
(lp1940
g13
asS'1051196'
p1941
(lp1942
g4
ag141
ag335
asS'904627'
p1943
(lp1944
g4
asS'999041'
p1945
(lp1946
g4
asS'1913740'
p1947
(lp1948
g8
ag466
ag386
ag288
aS'1.4.2.3'
p1949
ag248
asS'688081'
p1950
(lp1951
g4
asS'1335989'
p1952
(lp1953
g4
asS'452383'
p1954
(lp1955
g53
asS'1450332'
p1956
(lp1957
g4
ag102
asS'448478'
p1958
(lp1959
g284
asS'1512430'
p1960
(lp1961
g248
asS'570613'
p1962
(lp1963
g105
asS'205680'
p1964
(lp1965
g4
asS'489271'
p1966
(lp1967
g4
ag126
ag30
asS'806721'
p1968
(lp1969
g4
asS'2031280'
p1970
(lp1971
g4
asS'994064'
p1972
(lp1973
S'1.1.2.5'
p1974
aS'1.5.2.4'
p1975
ag298
ag90
ag264
aS'1.11.2.4'
p1976
ag102
ag1877
ag1432
ag1058
ag15
aS'1.1.3.2'
p1977
aS'1.4.1.13'
p1978
ag1868
ag603
ag97
aS'1.2.2.4'
p1979
aS'1.6.2.1'
p1980
aS'1.1.4.1'
p1981
aS'1.1.2.4'
p1982
aS'1.1.1.1'
p1983
ag1756
aS'1.4.2.3'
p1984
aS'1.10.3.2'
p1985
ag664
ag79
aS'8.2.3.2'
p1986
ag291
aS'8.1.2.4'
p1987
aS'1.6.2.4'
p1988
aS'1.2.2.1'
p1989
aS'1.13.12.1'
p1990
aS'4.2.15.1'
p1991
aS'4.2.3.3'
p1992
aS'4.2.2.4'
p1993
ag898
aS'1.4.4.3'
p1994
aS'8.1.2.5'
p1995
aS'1.8.3.2'
p1996
aS'1.3.1.1'
p1997
aS'1.1.2.1'
p1998
aS'8.1.4.2'
p1999
aS'1.15.1.1'
p2000
aS'4.2.4.5'
p2001
ag1608
aS'1.15.1.2'
p2002
aS'1.4.4.2'
p2003
aS'1.5.2.5'
p2004
aS'1.5.3.8'
p2005
ag666
aS'1.11.2.1'
p2006
aS'8.2.2.1'
p2007
aS'1.4.2.1'
p2008
ag668
ag1757
aS'1.2.1.1'
p2009
aS'1.5.2.3'
p2010
ag1521
ag1064
ag890
aS'1.4.2.2'
p2011
ag592
aS'1.1.3.1'
p2012
ag892
asS'1266352'
p2013
(lp2014
g7
ag30
asS'411459'
p2015
(lp2016
g4
ag30
asS'1702657'
p2017
(lp2018
g4
asS'450448'
p2019
(lp2020
g1344
asS'1988113'
p2021
(lp2022
g30
asS'1887974'
p2023
(lp2024
g4
aS'8.1.3.3'
p2025
asS'561956'
p2026
(lp2027
g695
ag1397
ag22
ag604
asS'1881628'
p2028
(lp2029
g4
asS'458585'
p2030
(lp2031
g331
ag328
ag249
ag386
ag501
ag216
asS'1938943'
p2032
(lp2033
g4
asS'1702385'
p2034
(lp2035
S'1.4.1.5'
p2036
asS'1712322'
p2037
(lp2038
g4
ag75
ag795
ag667
ag224
ag454
ag212
ag601
ag617
ag69
ag82
asS'1077059'
p2039
(lp2040
g4
asS'513253'
p2041
(lp2042
g4
asS'1239359'
p2043
(lp2044
g69
asS'1368093'
p2045
(lp2046
g75
asS'1945000'
p2047
(lp2048
g30
asS'885215'
p2049
(lp2050
g30
ag4
aS'1.4.2.4'
p2051
asS'271916'
p2052
(lp2053
g97
ag249
ag200
asS'1320533'
p2054
(lp2055
g212
ag22
ag53
ag141
asS'2017452'
p2056
(lp2057
g4
asS'1886239'
p2058
(lp2059
g4
asS'1515634'
p2060
(lp2061
g4
asS'671842'
p2062
(lp2063
g22
ag747
ag1058
asS'836933'
p2064
(lp2065
g147
asS'553960'
p2066
(lp2067
g4
asS'1414760'
p2068
(lp2069
g4
ag138
asS'1138085'
p2070
(lp2071
g188
asS'1204530'
p2072
(lp2073
g4
asS'609550'
p2074
(lp2075
g504
asS'1498830'
p2076
(lp2077
g4
asS'992798'
p2078
(lp2079
g4
asS'1077618'
p2080
(lp2081
g4
asS'1484594'
p2082
(lp2083
g126
ag523
ag320
asS'1235473'
p2084
(lp2085
S'1.12.4.5'
p2086
aS'1.12.3.2'
p2087
asS'335677'
p2088
(lp2089
g4
asS'2042096'
p2090
(lp2091
g36
ag328
ag1262
ag9
asS'1273873'
p2092
(lp2093
g30
asS'202874'
p2094
(lp2095
g4
asS'1859002'
p2096
(lp2097
g4
ag838
ag110
asS'2070334'
p2098
(lp2099
g200
asS'1882042'
p2100
(lp2101
g53
asS'1300685'
p2102
(lp2103
g246
asS'230202'
p2104
(lp2105
g606
asS'1630502'
p2106
(lp2107
g77
asS'1213805'
p2108
(lp2109
g13
asS'823268'
p2110
(lp2111
g61
ag4
ag507
aS'1.4.2.4'
p2112
ag36
ag852
ag121
ag1993
asS'1610788'
p2113
(lp2114
g105
ag141
asS'1610784'
p2115
(lp2116
g197
ag792
ag138
ag30
asS'400945'
p2117
(lp2118
g4
asS'1238004'
p2119
(lp2120
g284
ag161
asS'302008'
p2121
(lp2122
g331
asS'1872100'
p2123
(lp2124
g328
asS'661679'
p2125
(lp2126
g8
ag212
asS'1507520'
p2127
(lp2128
g30
asS'901028'
p2129
(lp2130
g4
asS'1956835'
p2131
(lp2132
g4
asS'1760945'
p2133
(lp2134
g504
asS'1760947'
p2135
(lp2136
g70
asS'1661027'
p2137
(lp2138
S'1.4.2.4'
p2139
asS'1784511'
p2140
(lp2141
g105
asS'1296129'
p2142
(lp2143
g4
asS'1764203'
p2144
(lp2145
g4
ag53
asS'691449'
p2146
(lp2147
S'1.5.2.4'
p2148
ag466
asS'1410625'
p2149
(lp2150
g138
asS'1389586'
p2151
(lp2152
g212
ag808
asS'1187144'
p2153
(lp2154
g134
asS'1661115'
p2155
(lp2156
g30
asS'811122'
p2157
(lp2158
g30
ag1014
asS'1957011'
p2159
(lp2160
g1990
ag1063
asS'585775'
p2161
(lp2162
g4
asS'818523'
p2163
(lp2164
g75
asS'361947'
p2165
(lp2166
g7
ag190
ag138
ag281
ag248
ag459
aS'1.2.2.5'
p2167
ag2007
aS'1.2.2.1'
p2168
ag626
ag433
ag288
ag67
asS'1652259'
p2169
(lp2170
g4
asS'1720037'
p2171
(lp2172
g4
asS'565651'
p2173
(lp2174
g504
asS'1711776'
p2175
(lp2176
g13
ag832
ag212
asS'563776'
p2177
(lp2178
g126
asS'1699019'
p2179
(lp2180
g30
asS'1890756'
p2181
(lp2182
S'1.4.1.4'
p2183
ag248
ag13
ag105
ag212
ag61
ag806
ag287
ag151
aS'1.4.2.1'
p2184
asS'1980900'
p2185
(lp2186
g4
asS'216554'
p2187
(lp2188
g4
asS'491932'
p2189
(lp2190
S'1.5.2.1'
p2191
asS'1921120'
p2192
(lp2193
g806
ag1809
ag61
asS'1751157'
p2194
(lp2195
g4
asS'1771799'
p2196
(lp2197
g138
asS'1487376'
p2198
(lp2199
g166
asS'934249'
p2200
(lp2201
g105
asS'759072'
p2202
(lp2203
S'1.4.1.5'
p2204
ag281
ag105
ag4
ag468
ag97
ag67
ag189
ag216
aS'1.1.4.2'
p2205
ag1251
aS'8.2.5.4'
p2206
asS'144120'
p2207
(lp2208
g30
ag9
ag36
asS'639143'
p2209
(lp2210
g331
aS'1.4.1.4'
p2211
asS'1358794'
p2212
(lp2213
g200
asS'189729'
p2214
(lp2215
g922
asS'171650'
p2216
(lp2217
g4
ag248
ag219
ag134
ag371
aS'1.4.9.2'
p2218
asS'1891753'
p2219
(lp2220
g30
ag1058
asS'736263'
p2221
(lp2222
g4
asS'861497'
p2223
(lp2224
g212
aS'1.10.3.3'
p2225
ag112
asS'282389'
p2226
(lp2227
g13
asS'1413920'
p2228
(lp2229
g224
ag138
ag126
ag601
asS'2021330'
p2230
(lp2231
g1435
ag658
ag433
aS'1.4.2.2'
p2232
aS'8.2.5.2'
p2233
ag533
aS'1.4.1.5'
p2234
ag719
ag43
asS'873440'
p2235
(lp2236
g2036
asS'131565'
p2237
(lp2238
g1058
ag459
asS'949982'
p2239
(lp2240
g4
ag211
ag148
ag1017
ag281
ag112
ag459
ag7
aS'1.1.4.2'
p2241
ag466
ag90
ag61
aS'1.12.4.5'
p2242
ag212
ag875
ag663
ag216
aS'1.4.1.2'
p2243
ag111
ag147
ag356
aS'1.5.2.4'
p2244
ag166
ag666
ag30
ag792
ag191
ag35
ag658
ag56
ag267
ag113
aS'1.11.5.3'
p2245
ag891
ag264
ag366
ag1294
aS'1.11.1.1'
p2246
ag667
aS'1.2.4.2'
p2247
aS'1.1.3.2'
p2248
aS'1.1.2.4'
p2249
ag270
ag332
aS'1.1.2.2'
p2250
ag219
asS'1412526'
p2251
(lp2252
g4
asS'1018990'
p2253
(lp2254
g219
asS'1587099'
p2255
(lp2256
g657
asS'294882'
p2257
(lp2258
g53
asS'642705'
p2259
(lp2260
g4
asS'1570692'
p2261
(lp2262
g8
ag603
ag4
ag189
ag111
ag161
asS'634506'
p2263
(lp2264
S'8.1.3.4'
p2265
aS'1.8.3.1'
p2266
ag197
asS'183913'
p2267
(lp2268
g30
asS'1282336'
p2269
(lp2270
g1435
asS'813439'
p2271
(lp2272
S'1.4.1.5'
p2273
aS'1.4.2.1'
p2274
ag30
asS'843566'
p2275
(lp2276
g30
asS'1616425'
p2277
(lp2278
g4
asS'1865089'
p2279
(lp2280
g30
asS'1554185'
p2281
(lp2282
g30
asS'870781'
p2283
(lp2284
g4
ag617
ag290
asS'304393'
p2285
(lp2286
g190
asS'965376'
p2287
(lp2288
g53
asS'1594020'
p2289
(lp2290
g459
ag270
ag4
asS'289425'
p2291
(lp2292
g1432
asS'573321'
p2293
(lp2294
g22
asS'407495'
p2295
(lp2296
g600
asS'1396991'
p2297
(lp2298
g126
asS'520876'
p2299
(lp2300
g4
asS'1700824'
p2301
(lp2302
g328
asS'224831'
p2303
(lp2304
g249
asS'602455'
p2305
(lp2306
S'1.6.2.1'
p2307
asS'1487026'
p2308
(lp2309
g22
asS'929677'
p2310
(lp2311
g4
asS'312872'
p2312
(lp2313
g75
ag372
ag1461
ag48
ag4
ag212
ag843
ag269
ag161
ag36
asS'854168'
p2314
(lp2315
g4
asS'1057291'
p2316
(lp2317
g331
ag459
ag1864
ag4
asS'1013778'
p2318
(lp2319
g135
asS'1045334'
p2320
(lp2321
g4
asS'1795841'
p2322
(lp2323
g30
asS'676472'
p2324
(lp2325
g219
asS'1204504'
p2326
(lp2327
g4
asS'128757'
p2328
(lp2329
g4
asS'1501563'
p2330
(lp2331
g212
asS'2079566'
p2332
(lp2333
g4
asS'1488280'
p2334
(lp2335
g4
ag987
asS'326504'
p2336
(lp2337
g459
asS'1893053'
p2338
(lp2339
g4
asS'1959240'
p2340
(lp2341
g498
aS'1.7.1.1'
p2342
asS'371857'
p2343
(lp2344
g53
asS'1463009'
p2345
(lp2346
g4
asS'1647531'
p2347
(lp2348
g30
asS'1203048'
p2349
(lp2350
g140
asS'1746491'
p2351
(lp2352
g105
asS'232091'
p2353
(lp2354
g30
asS'1682087'
p2355
(lp2356
g4
asS'727497'
p2357
(lp2358
g30
asS'260174'
p2359
(lp2360
g4
asS'1833391'
p2361
(lp2362
g454
ag603
aS'1.10.3.3'
p2363
aS'1.5.3.8'
p2364
ag1864
aS'1.7.1.1'
p2365
ag142
asS'1011937'
p2366
(lp2367
g4
asS'931602'
p2368
(lp2369
g22
asS'1776220'
p2370
(lp2371
g328
asS'534115'
p2372
(lp2373
g200
asS'1849734'
p2374
(lp2375
g105
ag43
asS'460552'
p2376
(lp2377
g281
ag138
asS'1111191'
p2378
(lp2379
g112
asS'849367'
p2380
(lp2381
g75
ag498
ag112
asS'1327177'
p2382
(lp2383
g287
ag459
asS'694237'
p2384
(lp2385
g676
ag138
asS'519677'
p2386
(lp2387
g4
ag30
ag48
ag64
asS'1099650'
p2388
(lp2389
g4
asS'1805379'
p2390
(lp2391
g890
asS'1658274'
p2392
(lp2393
g30
asS'814235'
p2394
(lp2395
g67
asS'477285'
p2396
(lp2397
g141
asS'752324'
p2398
(lp2399
g4
asS'596524'
p2400
(lp2401
g141
ag2204
ag287
ag212
ag485
asS'955490'
p2402
(lp2403
g1037
ag152
ag659
ag10
ag4
ag36
ag85
ag658
ag466
ag454
ag1294
ag61
ag838
asS'360376'
p2404
(lp2405
g4
asS'343762'
p2406
(lp2407
g67
ag332
ag601
aS'1.4.1.2'
p2408
ag281
aS'1.6.2.2'
p2409
ag249
ag987
asS'462130'
p2410
(lp2411
g288
ag320
asS'1006506'
p2412
(lp2413
g330
ag212
ag7
ag1553
ag325
ag780
asS'1021180'
p2414
(lp2415
g7
ag4
ag249
ag212
ag523
asS'564621'
p2416
(lp2417
g161
aS'1.4.4.3'
p2418
asS'1910452'
p2419
(lp2420
g141
asS'1889865'
p2421
(lp2422
g126
asS'1399889'
p2423
(lp2424
g212
ag53
asS'496116'
p2425
(lp2426
g212
asS'1966148'
p2427
(lp2428
g838
ag151
ag75
ag808
ag219
ag2184
ag36
ag397
ag131
ag284
ag74
aS'1.4.1.1'
p2429
ag663
ag956
ag4
ag544
ag466
aS'1.2.2.2'
p2430
ag69
ag25
aS'1.5.3.7'
p2431
ag30
ag14
ag899
ag875
ag224
ag329
ag1974
ag330
aS'1.5.1.1'
p2432
ag1297
ag16
asS'1259690'
p2433
(lp2434
g8
ag22
ag97
ag138
asS'803845'
p2435
(lp2436
g4
aS'1.4.1.5'
p2437
asS'1661637'
p2438
(lp2439
g11
asS'226972'
p2440
(lp2441
g9
ag105
asS'1831659'
p2442
(lp2443
g4
ag331
ag11
ag249
asS'1687631'
p2444
(lp2445
g212
ag13
ag148
asS'1780976'
p2446
(lp2447
g328
asS'1884685'
p2448
(lp2449
g139
asS'1345006'
p2450
(lp2451
g4
ag151
asS'1685523'
p2452
(lp2453
g209
asS'1787888'
p2454
(lp2455
g4
asS'1827544'
p2456
(lp2457
g30
asS'1532779'
p2458
(lp2459
g459
aS'1.12.3.2'
p2460
ag61
asS'1665027'
p2461
(lp2462
S'1.2.2.1'
p2463
asS'1590912'
p2464
(lp2465
g4
ag134
asS'713343'
p2466
(lp2467
g140
ag139
asS'1181645'
p2468
(lp2469
g792
ag356
ag658
ag357
ag838
ag454
aS'1.4.2.4'
p2470
ag267
ag1877
ag288
ag502
ag187
ag281
ag30
asS'1333314'
p2471
(lp2472
g328
aS'1.4.2.1'
p2473
asS'1074504'
p2474
(lp2475
g4
ag139
ag331
ag12
ag60
ag190
ag140
asS'1916901'
p2476
(lp2477
g4
asS'446323'
p2478
(lp2479
g53
asS'1259032'
p2480
(lp2481
g4
asS'1193071'
p2482
(lp2483
g1058
asS'1517107'
p2484
(lp2485
g4
ag14
ag8
aS'1.6.2.2'
p2486
ag523
ag30
ag85
aS'1.5.2.4'
p2487
ag213
ag141
aS'1.11.2.1'
p2488
aS'1.4.2.1'
p2489
ag248
asS'1788986'
p2490
(lp2491
g4
asS'1920170'
p2492
(lp2493
g4
asS'326647'
p2494
(lp2495
g4
ag386
ag36
asS'1700753'
p2496
(lp2497
g1553
ag747
asS'1989353'
p2498
(lp2499
g331
asS'1031669'
p2500
(lp2501
g139
asS'1135938'
p2502
(lp2503
g4
ag30
asS'104205'
p2504
(lp2505
g213
aS'1.2.2.1'
p2506
ag827
ag658
ag1064
ag496
aS'1.4.2.3'
p2507
ag4
aS'1.13.4.1'
p2508
aS'1.1.4.4'
p2509
ag659
ag1241
ag2409
ag194
ag71
ag1582
aS'1.5.3.7'
p2510
ag666
aS'1.5.2.4'
p2511
ag1809
ag35
ag1822
ag84
aS'1.4.2.4'
p2512
ag2004
ag792
ag592
ag2245
ag507
ag899
aS'1.8.3.3'
p2513
ag2250
aS'1.1.4.2'
p2514
aS'1.4.4.15'
p2515
ag330
aS'1.4.2.1'
p2516
ag710
asS'1979356'
p2517
(lp2518
g161
ag922
asS'378171'
p2519
(lp2520
g459
ag105
ag11
ag200
asS'1061234'
p2521
(lp2522
g4
asS'1217036'
p2523
(lp2524
g4
ag466
aS'8.2.5.2'
p2525
ag485
ag118
ag8
aS'8.1.2.5'
p2526
asS'1829349'
p2527
(lp2528
g141
asS'973140'
p2529
(lp2530
g30
asS'1371206'
p2531
(lp2532
g4
ag161
ag459
ag7
asS'1420934'
p2533
(lp2534
g693
ag792
ag53
ag357
ag846
ag48
ag601
ag667
ag510
ag97
aS'1.4.1.2'
p2535
ag659
ag890
ag2241
ag496
ag284
aS'1.6.2.2'
p2536
ag65
ag9
aS'1.12.1.3'
p2537
aS'1.12.4.5'
p2538
ag111
ag13
asS'1864305'
p2539
(lp2540
g4
ag111
ag141
ag224
ag30
ag843
aS'1.4.1.4'
p2541
aS'1.5.1.1'
p2542
ag1758
ag210
ag105
aS'1.1.4.1'
p2543
ag658
aS'1.8.3.5'
p2544
ag2513
ag281
ag922
ag166
aS'1.5.2.4'
p2545
aS'1.4.2.3'
p2546
ag498
ag523
ag212
ag676
ag1294
ag284
asS'1200183'
p2547
(lp2548
g4
asS'1719013'
p2549
(lp2550
g719
asS'1984495'
p2551
(lp2552
g147
ag1357
asS'898382'
p2553
(lp2554
g30
ag13
asS'786274'
p2555
(lp2556
g43
asS'1422877'
p2557
(lp2558
S'1.2.2.1'
p2559
asS'670010'
p2560
(lp2561
g4
asS'1243824'
p2562
(lp2563
g4
ag2541
ag13
ag281
ag190
ag2243
ag48
asS'1151853'
p2564
(lp2565
g151
ag75
ag7
ag1058
ag1683
ag4
ag498
ag284
aS'1.4.2.1'
p2566
ag1758
aS'1.12.4.5'
p2567
ag65
aS'1.12.2.5'
p2568
ag663
ag36
ag287
ag14
ag363
aS'1.6.2.2'
p2569
aS'4.2.3.3'
p2570
ag2432
aS'1.1.2.2'
p2571
ag291
ag2431
ag216
ag267
ag13
ag262
ag329
aS'1.1.3.1'
p2572
aS'1.9.1.2'
p2573
ag83
ag523
ag30
ag503
aS'1.1.4.4'
p2574
ag219
aS'1.1.4.1'
p2575
ag1064
ag356
asS'1392193'
p2576
(lp2577
g75
ag112
asS'1428710'
p2578
(lp2579
g4
asS'2059276'
p2580
(lp2581
g135
asS'859846'
p2582
(lp2583
g2211
ag138
asS'501173'
p2584
(lp2585
g4
asS'1524377'
p2586
(lp2587
g4
ag2036
ag30
asS'868087'
p2588
(lp2589
g4
asS'723572'
p2590
(lp2591
g4
ag48
asS'364884'
p2592
(lp2593
g4
asS'1626129'
p2594
(lp2595
g284
ag884
ag496
ag224
ag838
ag466
ag30
ag187
ag2513
ag827
ag90
aS'1.4.1.4'
p2596
asS'1775310'
p2597
(lp2598
g4
asS'1955937'
p2599
(lp2600
g603
asS'515594'
p2601
(lp2602
g30
ag138
ag105
ag75
ag792
asS'1686179'
p2603
(lp2604
S'1.2.2.5'
p2605
ag492
asS'802373'
p2606
(lp2607
g35
asS'1162909'
p2608
(lp2609
g4
ag13
ag311
ag281
ag249
ag492
ag523
ag466
ag375
ag219
ag48
ag30
ag83
ag212
ag792
ag248
ag284
ag356
ag111
ag1515
ag116
ag69
ag2036
asS'1722882'
p2610
(lp2611
g281
asS'1032315'
p2612
(lp2613
g105
asS'1392286'
p2614
(lp2615
g2409
asS'2087421'
p2616
(lp2617
g53
ag459
asS'755401'
p2618
(lp2619
g843
ag2596
ag291
asS'653682'
p2620
(lp2621
g284
asS'1077458'
p2622
(lp2623
g8
asS'1738604'
p2624
(lp2625
g4
ag30
ag281
aS'1.4.1.1'
p2626
asS'1494656'
p2627
(lp2628
g105
asS'1822674'
p2629
(lp2630
g4
ag126
ag48
ag112
ag190
asS'2061650'
p2631
(lp2632
g4
asS'1996567'
p2633
(lp2634
g4
ag30
asS'805279'
p2635
(lp2636
g2008
asS'1444275'
p2637
(lp2638
g4
ag7
asS'2041034'
p2639
(lp2640
S'4.2.4.2'
p2641
asS'1238151'
p2642
(lp2643
g67
asS'1962078'
p2644
(lp2645
g4
asS'1357347'
p2646
(lp2647
g1376
ag1453
asS'1138208'
p2648
(lp2649
g141
asS'1740920'
p2650
(lp2651
g53
asS'1138203'
p2652
(lp2653
g75
asS'518409'
p2654
(lp2655
g249
asS'1417421'
p2656
(lp2657
g4
asS'1888010'
p2658
(lp2659
g30
asS'997531'
p2660
(lp2661
g4
asS'884897'
p2662
(lp2663
g4
asS'898164'
p2664
(lp2665
g30
asS'1257569'
p2666
(lp2667
g7
asS'1117012'
p2668
(lp2669
g4
ag161
asS'863193'
p2670
(lp2671
g8
asS'1777143'
p2672
(lp2673
g4
asS'706784'
p2674
(lp2675
g4
asS'1596198'
p2676
(lp2677
g4
asS'1451400'
p2678
(lp2679
g30
ag4
ag281
asS'135379'
p2680
(lp2681
g459
ag288
ag281
asS'194407'
p2682
(lp2683
g4
asS'837046'
p2684
(lp2685
g4
asS'540705'
p2686
(lp2687
g12
asS'1785041'
p2688
(lp2689
g4
asS'725932'
p2690
(lp2691
g161
asS'252785'
p2692
(lp2693
g249
asS'447201'
p2694
(lp2695
g4
asS'804382'
p2696
(lp2697
g36
ag30
asS'569546'
p2698
(lp2699
g152
asS'400854'
p2700
(lp2701
g212
asS'1020202'
p2702
(lp2703
g4
asS'1161471'
p2704
(lp2705
g249
ag190
ag335
asS'336816'
p2706
(lp2707
g4
asS'1434148'
p2708
(lp2709
g30
asS'1593496'
p2710
(lp2711
g4
asS'2015168'
p2712
(lp2713
g4
asS'1877841'
p2714
(lp2715
g4
ag386
ag81
ag13
aS'1.4.2.2'
p2716
asS'479459'
p2717
(lp2718
g200
asS'160611'
p2719
(lp2720
g138
aS'1.4.1.7'
p2721
ag459
aS'1.5.1.1'
p2722
ag141
ag161
ag142
ag189
asS'1236864'
p2723
(lp2724
g4
ag459
asS'725686'
p2725
(lp2726
g74
ag75
asS'2050398'
p2727
(lp2728
g4
asS'1311129'
p2729
(lp2730
g328
asS'880765'
p2731
(lp2732
S'8.2.5.2'
p2733
asS'778568'
p2734
(lp2735
g11
asS'2082675'
p2736
(lp2737
g13
ag690
ag329
ag8
aS'1.5.3.2'
p2738
aS'4.1.5.1'
p2739
ag366
ag2010
ag488
asS'284281'
p2740
(lp2741
g113
asS'696077'
p2742
(lp2743
g498
ag30
asS'1243692'
p2744
(lp2745
g30
asS'561414'
p2746
(lp2747
g4
ag922
ag200
ag335
asS'1254547'
p2748
(lp2749
S'1.1.2.4'
p2750
ag2184
ag97
ag90
ag504
ag63
ag617
aS'8.1.1.4'
p2751
aS'1.13.1.2'
p2752
ag211
aS'1.5.2.2'
p2753
ag192
aS'1.5.2.4'
p2754
ag626
ag1582
aS'1.1.2.2'
p2755
ag1821
ag2512
ag1998
ag187
aS'1.1.2.3'
p2756
ag210
aS'1.4.2.3'
p2757
aS'1.1.4.1'
p2758
ag2010
ag2009
ag1877
aS'1.4.2.2'
p2759
ag1997
aS'1.11.1.1'
p2760
ag80
ag2211
ag599
ag233
ag1465
aS'1.10.3.3'
p2761
ag2738
aS'8.1.2.5'
p2762
aS'8.1.4.2'
p2763
asS'1535286'
p2764
(lp2765
g4
asS'1214824'
p2766
(lp2767
g13
asS'1574275'
p2768
(lp2769
g189
asS'1469686'
p2770
(lp2771
g102
asS'1891994'
p2772
(lp2773
g375
ag8
asS'1662062'
p2774
(lp2775
g75
asS'222985'
p2776
(lp2777
g4
asS'872865'
p2778
(lp2779
g30
ag138
asS'1792845'
p2780
(lp2781
g30
asS'1479624'
p2782
(lp2783
g335
ag12
ag219
asS'774720'
p2784
(lp2785
g74
asS'1309473'
p2786
(lp2787
g1554
asS'1916622'
p2788
(lp2789
g233
asS'857887'
p2790
(lp2791
g4
ag30
asS'180466'
p2792
(lp2793
g4
asS'594107'
p2794
(lp2795
g7
asS'1088355'
p2796
(lp2797
g126
ag224
ag48
ag459
asS'624847'
p2798
(lp2799
g4
ag7
aS'1.2.2.5'
p2800
ag11
asS'117824'
p2801
(lp2802
g4
asS'1870087'
p2803
(lp2804
g113
asS'754300'
p2805
(lp2806
g4
asS'572317'
p2807
(lp2808
g4
asS'1037660'
p2809
(lp2810
g397
asS'1313255'
p2811
(lp2812
g4
asS'1445956'
p2813
(lp2814
g126
asS'253305'
p2815
(lp2816
g4
asS'2003270'
p2817
(lp2818
g4
ag224
asS'1267530'
p2819
(lp2820
g4
asS'1450580'
p2821
(lp2822
g138
asS'1902278'
p2823
(lp2824
g30
asS'1469367'
p2825
(lp2826
g212
asS'1451291'
p2827
(lp2828
g141
asS'1349839'
p2829
(lp2830
g10
ag4
ag987
asS'424661'
p2831
(lp2832
g4
ag36
asS'1512409'
p2833
(lp2834
g4
asS'1783467'
p2835
(lp2836
g523
asS'424669'
p2837
(lp2838
g22
asS'1841191'
p2839
(lp2840
g248
asS'890053'
p2841
(lp2842
g4
asS'305594'
p2843
(lp2844
g4
ag335
ag375
asS'1027324'
p2845
(lp2846
g4
asS'702414'
p2847
(lp2848
g4
asS'558160'
p2849
(lp2850
g30
asS'859105'
p2851
(lp2852
g8
asS'1670779'
p2853
(lp2854
g657
ag61
asS'951669'
p2855
(lp2856
S'1.4.1.4'
p2857
asS'891373'
p2858
(lp2859
g698
ag833
ag291
aS'1.5.1.1'
p2860
ag1989
ag2525
aS'1.8.2.2'
p2861
ag898
ag1993
ag1990
ag2266
aS'1.4.1.13'
p2862
aS'1.4.2.4'
p2863
aS'1.8.3.2'
p2864
aS'1.6.2.2'
p2865
ag592
asS'636035'
p2866
(lp2867
g22
asS'636037'
p2868
(lp2869
g212
asS'1803220'
p2870
(lp2871
g4
ag61
asS'888338'
p2872
(lp2873
g356
asS'473562'
p2874
(lp2875
g30
ag138
ag61
ag331
ag987
ag247
asS'1004124'
p2876
(lp2877
g4
asS'748348'
p2878
(lp2879
g30
asS'513427'
p2880
(lp2881
g4
ag233
ag30
asS'1598217'
p2882
(lp2883
g190
ag113
ag82
ag603
asS'1253325'
p2884
(lp2885
g4
asS'246726'
p2886
(lp2887
g212
asS'1003774'
p2888
(lp2889
g140
ag36
ag357
ag281
ag166
ag249
ag832
ag454
ag1294
ag466
ag219
asS'1973404'
p2890
(lp2891
g4
asS'1897756'
p2892
(lp2893
g161
asS'1510820'
p2894
(lp2895
g138
ag603
asS'943823'
p2896
(lp2897
g331
asS'623861'
p2898
(lp2899
g126
asS'572658'
p2900
(lp2901
g121
ag53
asS'422545'
p2902
(lp2903
g4
asS'1135032'
p2904
(lp2905
g141
asS'376639'
p2906
(lp2907
g4
asS'981295'
p2908
(lp2909
g13
asS'1221198'
p2910
(lp2911
g4
asS'244619'
p2912
(lp2913
g30
asS'1786325'
p2914
(lp2915
S'1.4.2.3'
p2916
ag603
ag212
ag281
ag147
ag667
ag248
ag112
ag139
ag81
ag2545
asS'1204678'
p2917
(lp2918
g140
ag281
ag30
asS'1976031'
p2919
(lp2920
g4
asS'1368284'
p2921
(lp2922
g138
asS'274662'
p2923
(lp2924
g8
asS'2024584'
p2925
(lp2926
g30
asS'1048517'
p2927
(lp2928
g4
ag987
aS'1.11.2.4'
p2929
ag30
ag141
asS'363750'
p2930
(lp2931
S'1.6.2.1'
p2932
asS'695618'
p2933
(lp2934
g1058
ag2051
asS'412112'
p2935
(lp2936
g331
ag2800
aS'1.2.2.1'
p2937
aS'1.2.2.6'
p2938
aS'1.2.2.2'
p2939
asS'895057'
p2940
(lp2941
g4
ag13
asS'1738703'
p2942
(lp2943
g1516
asS'1467788'
p2944
(lp2945
g105
asS'926635'
p2946
(lp2947
g161
asS'643834'
p2948
(lp2949
g4
ag2205
ag190
asS'1133426'
p2950
(lp2951
g4
ag212
asS'164467'
p2952
(lp2953
g7
ag140
ag1520
asS'1484419'
p2954
(lp2955
g466
asS'440364'
p2956
(lp2957
g30
asS'940165'
p2958
(lp2959
g4
ag79
ag990
asS'1548801'
p2960
(lp2961
g4
asS'604092'
p2962
(lp2963
g8
asS'757480'
p2964
(lp2965
g53
asS'717711'
p2966
(lp2967
g85
asS'1442469'
p2968
(lp2969
g4
asS'433012'
p2970
(lp2971
g1465
aS'8.1.2.4'
p2972
ag406
ag12
ag288
ag10
asS'1225348'
p2973
(lp2974
g2036
asS'1301797'
p2975
(lp2976
g4
asS'1796399'
p2977
(lp2978
g4
asS'1627843'
p2979
(lp2980
g97
ag53
asS'1863002'
p2981
(lp2982
g7
asS'516259'
p2983
(lp2984
g4
ag808
ag922
asS'1564392'
p2985
(lp2986
g4
asS'482710'
p2987
(lp2988
g141
asS'1315491'
p2989
(lp2990
g224
ag212
asS'2034841'
p2991
(lp2992
g30
ag4
asS'1888301'
p2993
(lp2994
g30
asS'1793703'
p2995
(lp2996
g10
aS'1.5.3.7'
p2997
ag13
asS'1176709'
p2998
(lp2999
g134
ag138
asS'1268276'
p3000
(lp3001
g7
asS'1458960'
p3002
(lp3003
g4
ag2051
asS'788059'
p3004
(lp3005
g843
asS'1823082'
p3006
(lp3007
g67
ag36
asS'1540838'
p3008
(lp3009
g36
asS'1816911'
p3010
(lp3011
g30
asS'1709005'
p3012
(lp3013
g209
asS'1771929'
p3014
(lp3015
g331
ag61
ag10
ag7
ag224
ag83
ag216
ag2489
asS'548038'
p3016
(lp3017
g141
ag335
asS'716150'
p3018
(lp3019
g30
asS'544870'
p3020
(lp3021
g4
asS'2064996'
p3022
(lp3023
g4
asS'273787'
p3024
(lp3025
g8
asS'1830858'
p3026
(lp3027
g4
asS'239406'
p3028
(lp3029
g30
asS'460355'
p3030
(lp3031
g287
asS'1803351'
p3032
(lp3033
g4
asS'703850'
p3034
(lp3035
g4
ag30
ag498
asS'2023670'
p3036
(lp3037
g4
asS'545751'
p3038
(lp3039
g30
asS'2043538'
p3040
(lp3041
g105
asS'786788'
p3042
(lp3043
g36
asS'1469740'
p3044
(lp3045
g4
asS'206120'
p3046
(lp3047
g75
asS'918857'
p3048
(lp3049
g4
asS'1276014'
p3050
(lp3051
g30
ag4
ag75
asS'1929752'
p3052
(lp3053
g11
ag281
asS'1476940'
p3054
(lp3055
g30
asS'722371'
p3056
(lp3057
g1015
ag4
ag1864
ag690
ag161
ag320
asS'1412441'
p3058
(lp3059
g4
ag9
asS'1254888'
p3060
(lp3061
g30
asS'1821779'
p3062
(lp3063
g200
ag331
asS'372708'
p3064
(lp3065
g4
asS'2062276'
p3066
(lp3067
g838
ag22
ag657
asS'1786139'
p3068
(lp3069
g363
asS'844900'
p3070
(lp3071
g4
asS'116293'
p3072
(lp3073
g11
asS'413897'
p3074
(lp3075
g725
asS'1070919'
p3076
(lp3077
g75
asS'870965'
p3078
(lp3079
g331
asS'1089742'
p3080
(lp3081
g190
ag212
asS'301027'
p3082
(lp3083
g219
ag197
asS'301024'
p3084
(lp3085
g141
ag832
asS'1845965'
p3086
(lp3087
g233
asS'909700'
p3088
(lp3089
g4
asS'157895'
p3090
(lp3091
g12
ag192
ag1553
asS'1059198'
p3092
(lp3093
g102
asS'1194066'
p3094
(lp3095
g331
asS'1074895'
p3096
(lp3097
S'1.7.1.1'
p3098
asS'1909473'
p3099
(lp3100
g375
asS'1772645'
p3101
(lp3102
g4
ag48
ag2010
ag209
ag2191
asS'240077'
p3103
(lp3104
g4
asS'1807926'
p3105
(lp3106
g4
asS'254302'
p3107
(lp3108
g4
asS'849377'
p3109
(lp3110
g4
ag30
ag1949
asS'1023249'
p3111
(lp3112
g4
asS'1870709'
p3113
(lp3114
g212
asS'1501596'
p3115
(lp3116
g30
ag331
ag4
ag246
asS'826896'
p3117
(lp3118
g2463
ag116
aS'1.8.3.1'
p3119
asS'393930'
p3120
(lp3121
g4
ag36
ag328
ag190
ag7
ag249
ag284
ag189
ag65
ag67
ag69
ag357
ag135
ag216
ag454
ag116
ag110
asS'578420'
p3122
(lp3123
g141
ag53
asS'472198'
p3124
(lp3125
g7
asS'1868574'
p3126
(lp3127
g4
ag2437
ag224
ag466
ag74
ag67
ag72
ag329
asS'871168'
p3128
(lp3129
g105
ag288
ag363
ag22
ag4
ag116
asS'658986'
p3130
(lp3131
g190
ag335
asS'1879288'
p3132
(lp3133
g30
asS'1692164'
p3134
(lp3135
g13
asS'1353804'
p3136
(lp3137
g4
asS'1023791'
p3138
(lp3139
g126
asS'577945'
p3140
(lp3141
g36
asS'1660792'
p3142
(lp3143
g331
ag105
aS'1.10.3.1'
p3144
ag224
aS'1.13.9.1'
p3145
ag1432
ag719
ag2225
aS'8.1.2.5'
p3146
ag30
ag1989
asS'113135'
p3147
(lp3148
g36
asS'1694195'
p3149
(lp3150
g4
ag12
asS'365971'
p3151
(lp3152
g219
asS'1241312'
p3153
(lp3154
g161
asS'1462132'
p3155
(lp3156
S'1.1.2.1'
p3157
asS'1187433'
p3158
(lp3159
g7
ag224
asS'566095'
p3160
(lp3161
g22
asS'278334'
p3162
(lp3163
g138
ag36
asS'768415'
p3164
(lp3165
g693
ag328
aS'8.1.3.5'
p3166
ag987
aS'8.1.4.2'
p3167
ag1458
ag284
ag1758
ag1987
ag1021
ag901
ag602
ag725
ag142
ag504
ag1993
aS'1.5.1.1'
p3168
aS'1.10.3.3'
p3169
ag138
aS'1.13.1.2'
p3170
ag501
ag111
ag187
asS'803222'
p3171
(lp3172
g30
asS'1332671'
p3173
(lp3174
g30
ag617
asS'406888'
p3175
(lp3176
g36
asS'626538'
p3177
(lp3178
g11
ag9
ag606
ag36
ag320
ag725
ag13
ag105
ag212
ag30
ag281
asS'481655'
p3179
(lp3180
g4
asS'1898840'
p3181
(lp3182
g4
ag134
asS'307981'
p3183
(lp3184
g4
asS'847930'
p3185
(lp3186
g190
asS'1447091'
p3187
(lp3188
g4
asS'2075983'
p3189
(lp3190
g30
asS'827079'
p3191
(lp3192
g249
aS'1.4.2.6'
p3193
asS'568980'
p3194
(lp3195
g4
ag161
ag281
asS'1657580'
p3196
(lp3197
g4
ag808
asS'265863'
p3198
(lp3199
g105
asS'342405'
p3200
(lp3201
g1777
ag289
asS'1186901'
p3202
(lp3203
g139
asS'1581559'
p3204
(lp3205
g43
ag288
asS'620908'
p3206
(lp3207
g281
asS'211170'
p3208
(lp3209
g922
ag105
ag111
asS'2017165'
p3210
(lp3211
g142
ag459
asS'1262746'
p3212
(lp3213
g197
aS'1.4.2.3'
p3214
ag372
ag371
ag1461
asS'1898062'
p3215
(lp3216
g30
asS'1776585'
p3217
(lp3218
g139
asS'1918910'
p3219
(lp3220
g105
asS'1469918'
p3221
(lp3222
g4
asS'600383'
p3223
(lp3224
g30
asS'640108'
p3225
(lp3226
S'1.11.2.8'
p3227
ag151
ag922
ag504
ag134
ag335
ag224
ag1974
ag331
ag287
ag1015
ag14
ag90
ag466
ag69
ag105
ag4
ag267
ag9
ag213
ag85
aS'8.1.4.2'
p3228
ag875
ag606
ag219
ag36
aS'1.5.2.4'
p3229
aS'1.11.2.4'
p3230
ag433
ag111
aS'8.2.5.2'
p3231
ag189
ag533
aS'1.1.3.2'
p3232
ag669
ag886
aS'1.15.1.1'
p3233
ag187
ag193
ag65
ag110
aS'1.1.4.1'
p3234
ag2005
aS'1.3.1.1'
p3235
aS'1.4.4.3'
p3236
ag666
ag200
ag668
ag2431
ag1374
ag1376
ag892
aS'1.3.4.5'
p3237
ag2007
ag1456
aS'1.9.2.5'
p3238
aS'1.8.3.6'
p3239
ag2246
ag79
ag891
ag956
ag2342
aS'4.1.2.11'
p3240
aS'1.1.2.4'
p3241
aS'1.2.1.1'
p3242
aS'8.1.2.5'
p3243
aS'8.1.2.3'
p3244
aS'8.1.1.4'
p3245
aS'8.1.3.3'
p3246
aS'8.1.3.5'
p3247
asS'319630'
p3248
(lp3249
g4
asS'471885'
p3250
(lp3251
g75
asS'940688'
p3252
(lp3253
g4
asS'857793'
p3254
(lp3255
g386
asS'898969'
p3256
(lp3257
g4
asS'1540801'
p3258
(lp3259
g4
asS'2088716'
p3260
(lp3261
g141
asS'176782'
p3262
(lp3263
g719
asS'1154230'
p3264
(lp3265
g4
ag30
ag90
asS'273331'
p3266
(lp3267
g36
ag53
asS'1798653'
p3268
(lp3269
g105
asS'1993330'
p3270
(lp3271
g4
asS'1720656'
p3272
(lp3273
g4
asS'815354'
p3274
(lp3275
g987
ag30
ag335
asS'2094501'
p3276
(lp3277
g233
asS'212526'
p3278
(lp3279
g328
asS'1796547'
p3280
(lp3281
g4
asS'1845850'
p3282
(lp3283
g105
asS'563511'
p3284
(lp3285
g30
asS'228977'
p3286
(lp3287
S'1.7.1.1'
p3288
asS'1630938'
p3289
(lp3290
g4
ag808
ag138
asS'262398'
p3291
(lp3292
g43
asS'438425'
p3293
(lp3294
g30
asS'308683'
p3295
(lp3296
g4
asS'1533981'
p3297
(lp3298
g262
ag371
ag1461
ag1758
aS'1.5.2.4'
p3299
ag1515
asS'288910'
p3300
(lp3301
g1610
ag102
asS'526313'
p3302
(lp3303
g287
ag2139
aS'1.4.9.2'
p3304
aS'1.4.1.5'
p3305
ag73
asS'1179382'
p3306
(lp3307
g53
asS'215461'
p3308
(lp3309
g4
asS'897998'
p3310
(lp3311
g141
ag459
ag53
ag676
ag492
ag1800
ag67
ag224
ag83
ag187
ag262
ag72
ag1682
ag147
ag267
ag668
ag110
ag216
ag116
ag666
ag69
ag667
ag658
aS'1.1.4.4'
p3312
ag191
ag189
ag498
ag84
ag249
ag466
ag356
ag669
ag14
ag2545
ag193
ag896
aS'1.1.2.1'
p3313
ag2245
ag1294
ag433
ag496
ag79
aS'1.1.2.3'
p3314
ag2508
aS'1.1.2.5'
p3315
ag1981
ag2751
ag1521
ag211
ag213
ag878
aS'1.1.2.4'
p3316
ag80
ag81
ag3242
asS'722347'
p3317
(lp3318
g105
asS'1070293'
p3319
(lp3320
g197
asS'1175877'
p3321
(lp3322
g67
asS'1845773'
p3323
(lp3324
g4
asS'307088'
p3325
(lp3326
g74
asS'497342'
p3327
(lp3328
g386
asS'1018313'
p3329
(lp3330
g4
asS'2014837'
p3331
(lp3332
g190
asS'1077268'
p3333
(lp3334
g30
asS'444912'
p3335
(lp3336
g141
asS'354042'
p3337
(lp3338
g12
asS'926989'
p3339
(lp3340
g4
asS'1249347'
p3341
(lp3342
g485
ag200
ag4
ag601
ag22
ag115
asS'366720'
p3343
(lp3344
g12
asS'1146173'
p3345
(lp3346
g212
ag267
ag141
ag523
ag667
ag79
ag335
ag7
ag209
ag166
ag281
ag356
ag14
asS'1576313'
p3347
(lp3348
g504
asS'439495'
p3349
(lp3350
g4
ag67
ag105
ag141
aS'1.4.1.5'
p3351
ag35
ag36
asS'410310'
p3352
(lp3353
g4
asS'635011'
p3354
(lp3355
g4
ag30
asS'1354148'
p3356
(lp3357
g82
asS'691790'
p3358
(lp3359
g4
asS'2061027'
p3360
(lp3361
g523
asS'1423626'
p3362
(lp3363
g4
asS'498582'
p3364
(lp3365
g4
ag13
ag421
asS'309795'
p3366
(lp3367
g658
asS'508555'
p3368
(lp3369
g4
asS'1937610'
p3370
(lp3371
g30
asS'558524'
p3372
(lp3373
g212
ag152
asS'1089489'
p3374
(lp3375
g4
asS'1238697'
p3376
(lp3377
g30
asS'1999605'
p3378
(lp3379
g4
asS'153366'
p3380
(lp3381
g13
asS'2060750'
p3382
(lp3383
g219
asS'1832371'
p3384
(lp3385
g4
ag141
ag61
asS'518762'
p3386
(lp3387
g7
ag466
asS'1142850'
p3388
(lp3389
g4
asS'727185'
p3390
(lp3391
g147
ag3313
ag64
ag328
ag194
ag329
ag212
ag406
ag471
asS'1264743'
p3392
(lp3393
g4
asS'455582'
p3394
(lp3395
g4
ag329
asS'1328605'
p3396
(lp3397
g4
asS'1339008'
p3398
(lp3399
S'1.5.2.5'
p3400
asS'1530377'
p3401
(lp3402
g1045
ag614
ag138
ag606
ag219
ag846
ag15
aS'1.4.1.4'
p3403
ag504
ag142
aS'1.4.1.2'
p3404
aS'1.1.2.5'
p3405
aS'1.2.2.1'
p3406
aS'1.4.2.2'
p3407
ag892
asS'918559'
p3408
(lp3409
g2204
asS'1296848'
p3410
(lp3411
g30
asS'943492'
p3412
(lp3413
g212
asS'537591'
p3414
(lp3415
g4
ag53
asS'290454'
p3416
(lp3417
g12
asS'362594'
p3418
(lp3419
g4
asS'469931'
p3420
(lp3421
g12
ag7
ag151
ag8
ag360
ag200
ag335
ag459
ag161
asS'469930'
p3422
(lp3423
g161
ag386
ag284
ag1313
ag15
ag140
asS'689971'
p3424
(lp3425
g139
ag126
ag375
ag11
ag4
ag249
ag112
ag200
ag311
ag48
ag212
ag13
ag466
ag1294
ag501
ag14
ag209
ag284
ag116
ag83
aS'8.1.1.3'
p3426
ag248
ag498
ag147
ag2010
ag1432
ag523
ag30
ag262
ag659
ag35
ag899
ag792
ag471
aS'1.1.2.5'
p3427
ag110
ag496
ag1521
ag795
asS'409706'
p3428
(lp3429
g4
ag284
asS'901072'
p3430
(lp3431
g288
ag4
asS'509680'
p3432
(lp3433
g2937
ag320
ag4
ag85
ag262
ag827
aS'1.7.1.3'
p3434
ag747
ag264
ag2241
ag193
ag2183
ag67
ag75
ag922
ag69
ag216
ag507
ag190
ag795
asS'810280'
p3435
(lp3436
S'8.1.2.4'
p3437
ag197
ag224
ag3406
asS'298270'
p3438
(lp3439
g459
asS'596566'
p3440
(lp3441
g4
asS'1620182'
p3442
(lp3443
g676
ag7
ag190
ag72
ag500
ag523
ag922
ag219
aS'1.9.1.1'
p3444
aS'4.1.1.1'
p3445
ag67
ag75
ag2862
ag224
ag30
ag692
asS'1310028'
p3446
(lp3447
g990
ag1206
asS'1417500'
p3448
(lp3449
g126
asS'1068050'
p3450
(lp3451
g281
ag1058
ag685
asS'1797046'
p3452
(lp3453
g7
ag67
asS'2013855'
p3454
(lp3455
g4
asS'1764096'
p3456
(lp3457
g4
asS'1631420'
p3458
(lp3459
g30
asS'1024418'
p3460
(lp3461
g375
asS'714285'
p3462
(lp3463
g4
asS'1314789'
p3464
(lp3465
g105
asS'1268674'
p3466
(lp3467
g7
asS'211769'
p3468
(lp3469
g602
ag4
ag459
ag67
ag676
asS'863543'
p3470
(lp3471
g2273
ag197
ag501
asS'718838'
p3472
(lp3473
g406
ag4
asS'658193'
p3474
(lp3475
g30
asS'223872'
p3476
(lp3477
g4
asS'1461205'
p3478
(lp3479
g212
asS'296922'
p3480
(lp3481
S'1.4.1.13'
p3482
ag12
asS'1950962'
p3483
(lp3484
g85
asS'552240'
p3485
(lp3486
S'1.2.2.1'
p3487
asS'545358'
p3488
(lp3489
g126
asS'749927'
p3490
(lp3491
g4
asS'1297393'
p3492
(lp3493
g30
asS'1490549'
p3494
(lp3495
g269
ag617
asS'1362890'
p3496
(lp3497
g4
asS'395601'
p3498
(lp3499
g4
asS'129469'
p3500
(lp3501
g53
ag212
ag97
asS'1063966'
p3502
(lp3503
S'1.2.2.1'
p3504
aS'1.6.2.1'
p3505
ag372
ag2929
ag192
ag1312
ag2218
ag795
ag501
ag724
ag36
ag732
ag90
ag890
ag2010
ag191
aS'1.12.2.1'
p3506
aS'1.6.2.2'
p3507
ag1878
asS'1944709'
p3508
(lp3509
g194
asS'1295430'
p3510
(lp3511
g48
asS'1537457'
p3512
(lp3513
g97
asS'1964050'
p3514
(lp3515
g883
asS'1421374'
p3516
(lp3517
g4
asS'1564445'
p3518
(lp3519
g7
asS'1816119'
p3520
(lp3521
g61
ag30
ag190
ag105
asS'646350'
p3522
(lp3523
g30
asS'1304025'
p3524
(lp3525
g48
asS'1648544'
p3526
(lp3527
S'1.2.2.5'
p3528
ag7
ag459
asS'863725'
p3529
(lp3530
g116
asS'495532'
p3531
(lp3532
g1877
asS'443580'
p3533
(lp3534
g1240
asS'1570179'
p3535
(lp3536
g4
asS'1708198'
p3537
(lp3538
g11
asS'2073078'
p3539
(lp3540
g4
ag1251
asS'1485630'
p3541
(lp3542
g105
ag53
asS'1684520'
p3543
(lp3544
g4
asS'1243328'
p3545
(lp3546
g75
asS'852773'
p3547
(lp3548
g249
ag990
ag328
asS'674734'
p3549
(lp3550
g4
ag30
ag224
ag262
asS'1772846'
p3551
(lp3552
g4
ag190
ag288
ag627
ag832
aS'1.6.2.1'
p3553
ag219
asS'2059727'
p3554
(lp3555
g8
asS'651499'
p3556
(lp3557
g4
asS'1478292'
p3558
(lp3559
g161
ag523
asS'470879'
p3560
(lp3561
g30
ag4
asS'542204'
p3562
(lp3563
g4
asS'508422'
p3564
(lp3565
g141
ag105
asS'1289172'
p3566
(lp3567
g4
asS'358386'
p3568
(lp3569
g320
ag13
ag48
ag115
ag161
ag459
ag64
aS'1.1.2.1'
p3570
ag922
ag147
ag112
ag1064
ag2204
ag3304
ag523
ag212
ag166
ag35
ag116
ag287
asS'484802'
p3571
(lp3572
g1058
ag48
ag1517
asS'859150'
p3573
(lp3574
g893
asS'1130536'
p3575
(lp3576
g30
asS'200509'
p3577
(lp3578
g105
ag30
asS'1237986'
p3579
(lp3580
g4
ag224
ag161
ag61
ag614
asS'246353'
p3581
(lp3582
g4
ag246
ag141
asS'755849'
p3583
(lp3584
g504
ag147
asS'362297'
p3585
(lp3586
g74
ag75
asS'214300'
p3587
(lp3588
g366
aS'1.2.2.5'
p3589
asS'1339166'
p3590
(lp3591
g2342
ag808
ag289
ag138
ag194
ag806
asS'1595328'
p3592
(lp3593
g249
ag363
asS'509069'
p3594
(lp3595
g501
asS'1089499'
p3596
(lp3597
g36
ag335
asS'2043297'
p3598
(lp3599
g371
ag406
ag289
ag233
ag77
ag197
ag134
ag224
ag875
asS'1130015'
p3600
(lp3601
g110
asS'1569067'
p3602
(lp3603
S'1.4.1.6'
p3604
ag1553
ag406
asS'1671722'
p3605
(lp3606
g4
asS'1130549'
p3607
(lp3608
g331
asS'820314'
p3609
(lp3610
g4
ag1037
ag194
ag507
ag138
aS'1.4.2.4'
p3611
asS'203741'
p3612
(lp3613
g105
asS'1370672'
p3614
(lp3615
g356
asS'1512233'
p3616
(lp3617
g459
asS'406955'
p3618
(lp3619
g61
ag126
asS'845605'
p3620
(lp3621
g161
asS'1599221'
p3622
(lp3623
g1819
ag4
asS'204530'
p3624
(lp3625
g4
asS'819891'
p3626
(lp3627
g30
asS'965476'
p3628
(lp3629
g890
asS'966783'
p3630
(lp3631
g4
asS'1005267'
p3632
(lp3633
g13
asS'235546'
p3634
(lp3635
g30
ag246
asS'512638'
p3636
(lp3637
g4
asS'1116909'
p3638
(lp3639
g922
asS'108972'
p3640
(lp3641
g4
asS'902519'
p3642
(lp3643
g4
asS'501466'
p3644
(lp3645
g4
asS'1657590'
p3646
(lp3647
g4
asS'1263183'
p3648
(lp3649
g4
ag72
ag116
ag2716
ag224
ag30
asS'1595458'
p3650
(lp3651
g138
ag142
aS'1.15.1.1'
p3652
asS'851815'
p3653
(lp3654
g30
asS'472751'
p3655
(lp3656
g53
ag61
asS'1017023'
p3657
(lp3658
g4
ag105
ag142
asS'1940416'
p3659
(lp3660
g4
ag468
ag1058
ag284
ag893
aS'1.7.1.1'
p3661
ag291
ag188
ag890
ag366
aS'8.1.3.5'
p3662
ag547
ag3244
ag1112
ag113
aS'8.1.3.2'
p3663
ag2408
ag990
aS'1.4.2.4'
p3664
ag2211
asS'725970'
p3665
(lp3666
g141
asS'2037133'
p3667
(lp3668
g1432
ag138
asS'1546311'
p3669
(lp3670
g117
asS'169719'
p3671
(lp3672
g4
ag328
asS'147327'
p3673
(lp3674
g4
asS'693448'
p3675
(lp3676
g30
asS'769432'
p3677
(lp3678
g4
asS'1228146'
p3679
(lp3680
g212
ag126
ag140
ag922
asS'1953951'
p3681
(lp3682
g30
ag4
ag190
ag216
ag48
ag9
ag233
ag61
ag523
ag36
ag1515
ag281
ag356
ag320
ag1014
ag249
aS'1.4.2.6'
p3683
aS'1.15.1.2'
p3684
ag1492
ag496
ag498
aS'1.1.2.2'
p3685
ag1519
ag901
ag35
aS'1.1.4.1'
p3686
ag211
ag112
asS'1336579'
p3687
(lp3688
g30
asS'1681318'
p3689
(lp3690
g1461
ag656
ag75
ag523
ag3664
asS'2050597'
p3691
(lp3692
g152
ag1207
asS'432592'
p3693
(lp3694
g4
asS'2090396'
p3695
(lp3696
g4
asS'1259665'
p3697
(lp3698
g4
asS'168401'
p3699
(lp3700
g48
asS'1547796'
p3701
(lp3702
g2857
ag197
ag140
ag1757
asS'841868'
p3703
(lp3704
g67
asS'464581'
p3705
(lp3706
g4
ag8
ag459
ag433
aS'1.7.1.1'
p3707
aS'1.2.2.5'
p3708
ag2011
ag335
asS'1314379'
p3709
(lp3710
g4
asS'950413'
p3711
(lp3712
g72
asS'285684'
p3713
(lp3714
g4
ag30
ag75
ag111
ag386
ag48
ag189
ag212
ag2569
ag61
ag363
ag459
ag191
ag659
ag1985
ag134
aS'1.6.2.3'
p3715
asS'1139358'
p3716
(lp3717
g4
ag126
asS'1658822'
p3718
(lp3719
g4
asS'1661227'
p3720
(lp3721
g187
asS'1540972'
p3722
(lp3723
g331
ag193
ag151
ag11
aS'1.5.1.1'
p3724
aS'1.10.3.3'
p3725
ag224
ag4
ag287
ag356
aS'8.1.1.3'
p3726
ag249
ag433
ag262
ag329
ag67
aS'1.4.1.4'
p3727
aS'1.4.1.8'
p3728
ag3239
ag70
ag212
ag658
ag152
ag795
ag504
ag3243
ag454
ag188
ag284
asS'889408'
p3729
(lp3730
g30
ag147
aS'1.5.2.4'
p3731
asS'1798186'
p3732
(lp3733
g841
ag161
aS'1.4.2.4'
p3734
asS'497587'
p3735
(lp3736
g4
asS'544365'
p3737
(lp3738
g141
asS'1612496'
p3739
(lp3740
g246
ag138
ag695
asS'526063'
p3741
(lp3742
g523
ag22
asS'405809'
p3743
(lp3744
g4
ag224
asS'312606'
p3745
(lp3746
g30
asS'148961'
p3747
(lp3748
g75
asS'526084'
p3749
(lp3750
g219
ag1017
ag7
ag10
ag200
ag329
ag216
ag8
ag1520
ag659
ag72
ag915
ag2437
ag732
asS'842729'
p3751
(lp3752
g4
ag838
asS'1461368'
p3753
(lp3754
g25
asS'629368'
p3755
(lp3756
g105
ag142
ag246
ag140
ag922
asS'738345'
p3757
(lp3758
g719
aS'1.4.4.1'
p3759
ag9
ag987
ag459
ag75
asS'1112971'
p3760
(lp3761
g30
ag397
ag1240
asS'453304'
p3762
(lp3763
g2569
asS'1226604'
p3764
(lp3765
g320
asS'1817522'
p3766
(lp3767
g4
ag224
asS'1536366'
p3768
(lp3769
g4
asS'1648154'
p3770
(lp3771
g30
asS'1880059'
p3772
(lp3773
g246
asS'1487860'
p3774
(lp3775
g138
ag3727
ag695
aS'1.4.2.4'
p3776
aS'1.4.2.3'
p3777
ag262
ag147
ag72
ag886
ag113
ag1582
ag116
ag110
ag1373
ag1682
ag166
ag666
ag732
ag211
ag454
ag85
ag669
ag795
ag3506
asS'136918'
p3778
(lp3779
g1818
asS'1567083'
p3780
(lp3781
g4
asS'1377760'
p3782
(lp3783
g30
asS'1683813'
p3784
(lp3785
g523
asS'440584'
p3786
(lp3787
g922
asS'652129'
p3788
(lp3789
g4
asS'1384216'
p3790
(lp3791
g126
asS'1912668'
p3792
(lp3793
g922
asS'1299273'
p3794
(lp3795
g53
asS'787597'
p3796
(lp3797
g4
asS'315077'
p3798
(lp3799
g141
asS'1133216'
p3800
(lp3801
g1251
asS'1354093'
p3802
(lp3803
g61
asS'825796'
p3804
(lp3805
g4
asS'1557297'
p3806
(lp3807
g161
asS'1275407'
p3808
(lp3809
g4
ag30
asS'592332'
p3810
(lp3811
g466
ag4
ag77
ag262
ag61
ag498
ag246
ag161
ag30
ag1465
asS'1907537'
p3812
(lp3813
g8
asS'1477592'
p3814
(lp3815
g75
asS'1600966'
p3816
(lp3817
S'1.6.2.3'
p3818
asS'1186983'
p3819
(lp3820
g212
asS'2024737'
p3821
(lp3822
g200
asS'615673'
p3823
(lp3824
g4
asS'1718918'
p3825
(lp3826
g4
asS'429991'
p3827
(lp3828
g212
ag601
ag36
asS'991426'
p3829
(lp3830
g67
asS'1509629'
p3831
(lp3832
g4
asS'677836'
p3833
(lp3834
S'1.9.3.2'
p3835
asS'1503284'
p3836
(lp3837
g659
asS'1482695'
p3838
(lp3839
g11
ag126
asS'1752663'
p3840
(lp3841
g4
asS'407702'
p3842
(lp3843
g142
ag523
ag30
asS'1558386'
p3844
(lp3845
g523
asS'1231309'
p3846
(lp3847
g485
ag138
ag25
ag1037
ag192
ag187
ag69
asS'1778281'
p3848
(lp3849
g4
ag2051
ag11
ag7
asS'666922'
p3850
(lp3851
S'1.13.1.2'
p3852
asS'141558'
p3853
(lp3854
g4
asS'2039189'
p3855
(lp3856
g4
asS'1053884'
p3857
(lp3858
g30
asS'1521745'
p3859
(lp3860
g4
asS'619582'
p3861
(lp3862
g4
ag75
asS'1555184'
p3863
(lp3864
g4
ag30
asS'691682'
p3865
(lp3866
g30
asS'700743'
p3867
(lp3868
g126
asS'1274751'
p3869
(lp3870
g30
asS'661594'
p3871
(lp3872
g4
asS'1276530'
p3873
(lp3874
S'1.4.1.5'
p3875
asS'481020'
p3876
(lp3877
g4
asS'719102'
p3878
(lp3879
g216
ag357
asS'303371'
p3880
(lp3881
g190
asS'1408249'
p3882
(lp3883
g67
ag4
asS'924032'
p3884
(lp3885
g4
ag386
ag30
ag808
ag7
aS'1.9.2.5'
p3886
ag915
ag500
ag492
ag126
ag494
ag2546
aS'1.4.1.2'
p3887
asS'1354945'
p3888
(lp3889
g30
asS'265232'
p3890
(lp3891
g97
ag523
ag287
aS'1.4.1.5'
p3892
ag126
ag193
ag30
ag386
aS'1.4.6.3'
p3893
asS'903834'
p3894
(lp3895
g4
asS'513738'
p3896
(lp3897
g4
ag30
ag725
asS'2017736'
p3898
(lp3899
g67
asS'265234'
p3900
(lp3901
g4
asS'1601098'
p3902
(lp3903
g466
asS'1833312'
p3904
(lp3905
g4
asS'1180965'
p3906
(lp3907
g53
ag7
asS'668886'
p3908
(lp3909
g140
asS'575055'
p3910
(lp3911
g1206
ag148
ag833
aS'1.4.1.4'
p3912
ag147
ag14
ag77
ag2008
ag2716
ag2012
aS'1.4.1.7'
p3913
ag1880
ag126
asS'1543650'
p3914
(lp3915
g4
asS'1001915'
p3916
(lp3917
g134
asS'1455808'
p3918
(lp3919
g30
asS'1627130'
p3920
(lp3921
g53
ag161
ag249
ag48
aS'1.11.3.4'
p3922
ag3426
ag4
ag498
asS'163730'
p3923
(lp3924
g4
ag53
ag200
asS'1441513'
p3925
(lp3926
g363
ag676
ag725
ag212
asS'1855629'
p3927
(lp3928
g138
asS'719969'
p3929
(lp3930
g4
ag2265
asS'860349'
p3931
(lp3932
g4
ag1517
ag1344
ag284
ag1017
ag372
ag2183
ag1877
asS'768515'
p3933
(lp3934
g4
asS'2030496'
p3935
(lp3936
g25
asS'578010'
p3937
(lp3938
g4
asS'1076570'
p3939
(lp3940
g284
ag4
asS'471410'
p3941
(lp3942
g4
ag12
asS'639840'
p3943
(lp3944
g4
asS'1956935'
p3945
(lp3946
g1058
ag200
ag126
asS'1026376'
p3947
(lp3948
g4
asS'1121395'
p3949
(lp3950
g498
ag890
ag2241
ag1060
ag406
ag667
asS'1806512'
p3951
(lp3952
g1064
ag67
ag4
ag61
ag111
ag605
ag357
ag105
ag459
ag658
ag190
ag147
ag116
aS'1.7.1.4'
p3953
asS'229090'
p3954
(lp3955
g131
ag126
asS'1506040'
p3956
(lp3957
g67
asS'1859458'
p3958
(lp3959
g4
asS'1353025'
p3960
(lp3961
g30
asS'931042'
p3962
(lp3963
g190
asS'328867'
p3964
(lp3965
g627
aS'1.7.1.1'
p3966
ag328
ag30
asS'1924749'
p3967
(lp3968
g4
asS'1344798'
p3969
(lp3970
g4
ag3664
asS'830468'
p3971
(lp3972
g36
asS'2086055'
p3973
(lp3974
g4
asS'1592284'
p3975
(lp3976
g4
ag363
asS'749781'
p3977
(lp3978
g298
ag329
ag663
ag4
ag2342
ag471
ag288
aS'1.4.2.1'
p3979
ag606
ag1864
ag2011
ag884
ag1757
ag320
aS'1.11.3.1'
p3980
ag3727
ag897
ag166
ag843
ag3235
ag187
ag2751
ag1294
ag1984
ag1581
aS'1.4.3.7'
p3981
ag1758
ag3234
ag3445
ag894
ag507
ag1608
ag1012
ag210
ag1295
ag2245
ag3237
ag1432
ag84
ag2218
ag2760
ag193
ag43
ag2487
aS'1.1.2.2'
p3982
ag30
ag2864
ag2004
ag2432
ag2000
ag891
ag3684
ag1985
ag1022
ag85
ag2508
aS'1.15.1.3'
p3983
aS'8.1.2.5'
p3984
ag3506
asS'901878'
p3985
(lp3986
g1680
ag246
ag956
ag138
ag134
ag843
ag114
ag1206
aS'1.12.1.4'
p3987
ag119
ag466
ag606
aS'1.9.2.6'
p3988
ag1877
ag692
ag131
ag891
ag152
ag80
ag211
ag508
ag191
ag65
ag1867
aS'4.2.8.1'
p3989
ag1682
aS'1.4.4.5'
p3990
ag645
aS'1.4.1.13'
p3991
ag30
ag498
ag43
ag659
ag290
ag1521
aS'1.5.2.1'
p3992
ag592
ag81
ag892
asS'1208452'
p3993
(lp3994
g4
asS'394826'
p3995
(lp3996
g4
ag194
asS'169290'
p3997
(lp3998
g4
ag269
ag75
ag7
ag190
ag249
asS'1187714'
p3999
(lp4000
g30
asS'1827412'
p4001
(lp4002
g808
asS'209914'
p4003
(lp4004
g30
asS'1628471'
p4005
(lp4006
g4
asS'691210'
p4007
(lp4008
g386
asS'1685928'
p4009
(lp4010
g151
ag224
ag53
ag990
ag212
ag371
asS'1193544'
p4011
(lp4012
g4
asS'312544'
p4013
(lp4014
g4
asS'1193015'
p4015
(lp4016
g4
ag246
ag330
ag3734
asS'979330'
p4017
(lp4018
g4
asS'411232'
p4019
(lp4020
g4
ag249
asS'446231'
p4021
(lp4022
g4
asS'1723621'
p4023
(lp4024
g30
asS'572057'
p4025
(lp4026
g138
ag72
ag1434
ag875
asS'737108'
p4027
(lp4028
g892
asS'720605'
p4029
(lp4030
g126
asS'912151'
p4031
(lp4032
g289
aS'1.4.9.2'
p4033
aS'1.2.2.1'
p4034
aS'1.7.1.1'
p4035
ag1682
ag269
ag16
ag665
ag329
ag719
ag503
ag732
ag138
ag1707
ag459
asS'737106'
p4036
(lp4037
g1553
ag138
asS'165170'
p4038
(lp4039
g263
asS'229320'
p4040
(lp4041
g1064
asS'229322'
p4042
(lp4043
g249
as.