(lp1
(lp2
S'34'
p3
aS'337'
p4
aS'242'
p5
aS'56'
p6
aS'71'
p7
aa(lp8
S'4768'
p9
aS'409415'
p10
aS'407994'
p11
aS'482919'
p12
aS'11013'
p13
aa(lp14
S'248'
p15
aS'1271'
p16
aS'518'
p17
aS'268'
p18
aS'6565'
p19
aa(lp20
S'3456'
p21
aS'3392'
p22
aS'3738'
p23
aS'2003'
p24
aS'4504'
p25
aa(lp26
S'179'
p27
aS'211'
p28
aS'5013'
p29
aS'280'
p30
aS'1829'
p31
aa(lp32
S'216'
p33
aS'6'
aS'223'
p34
aS'15'
p35
aS'59'
p36
aa(lp37
S'25'
p38
aS'26'
p39
aS'49'
p40
aS'57'
p41
aS'60'
p42
aa(lp43
S'769'
p44
aS'22250'
p45
aS'1188'
p46
aS'89'
p47
aS'118'
p48
aa(lp49
S'14'
p50
aS'31'
p51
aS'55'
p52
aS'67'
p53
aS'79'
p54
aa(lp55
S'14'
p56
aS'25'
p57
aS'26'
p58
aS'68'
p59
aS'71'
p60
aa(lp61
S'859'
p62
aS'12'
p63
aS'212414'
p64
aS'20301'
p65
aS'504'
p66
aa(lp67
S'34'
p68
aS'26'
p69
aS'1184'
p70
aS'61'
p71
aS'64'
p72
aa(lp73
S'409415'
p74
aS'119179'
p75
aS'64372'
p76
aS'407994'
p77
aS'9095'
p78
aa(lp79
S'854'
p80
aS'3436'
p81
aS'11555'
p82
aS'281'
p83
aS'80'
p84
aa(lp85
S'34'
p86
aS'26'
p87
aS'541'
p88
aS'55'
p89
aS'79'
p90
aa(lp91
S'14'
p92
aS'25'
p93
aS'57'
p94
aS'66'
p95
aS'67'
p96
aa(lp97
S'178'
p98
aS'25'
p99
aS'66'
p100
aS'71'
p101
aS'117'
p102
aa(lp103
S'34'
p104
aS'242'
p105
aS'26'
p106
aS'55'
p107
aS'84'
p108
aa(lp109
S'94'
p110
aS'7740'
p111
aS'1629'
p112
aS'435'
p113
aS'145'
p114
aa(lp115
S'95'
p116
aS'92'
p117
aS'107'
p118
aS'26'
p119
aS'80'
p120
aa(lp121
S'394'
p122
aS'31744'
p123
aS'18817'
p124
aS'403'
p125
aS'79295'
p126
aa(lp127
S'696'
p128
aS'1331'
p129
aS'11'
p130
aS'905'
p131
aS'4'
aa(lp132
S'165'
p133
aS'26'
p134
aS'31'
p135
aS'60'
p136
aS'79'
p137
aa(lp138
S'176'
p139
aS'198'
p140
aS'261'
p141
aS'100'
p142
aS'281'
p143
aa(lp144
S'34'
p145
aS'241'
p146
aS'188'
p147
aS'56'
p148
aS'79'
p149
aa(lp150
S'2397'
p151
aS'889'
p152
aS'15824'
p153
aS'18575'
p154
aS'6938'
p155
aa(lp156
S'34'
p157
aS'56'
p158
aS'66'
p159
aS'71'
p160
aS'80'
p161
aa(lp162
S'165'
p163
aS'26'
p164
aS'31'
p165
aS'60'
p166
aS'71'
p167
aa(lp168
S'2'
aS'249'
p169
aS'8'
aS'31'
p170
aS'60'
p171
aa(lp172
S'68174'
p173
aS'24463'
p174
aS'101'
p175
aS'7973'
p176
aS'52'
p177
aa(lp178
S'249'
p179
aS'165'
p180
aS'55'
p181
aS'56'
p182
aS'79'
p183
aa(lp184
S'95'
p185
aS'92'
p186
aS'26'
p187
aS'37'
p188
aS'775'
p189
aa(lp190
S'34'
p191
aS'26'
p192
aS'320'
p193
aS'55'
p194
aS'56'
p195
aa(lp196
S'34'
p197
aS'26'
p198
aS'320'
p199
aS'55'
p200
aS'57'
p201
aa(lp202
S'34'
p203
aS'3383'
p204
aS'320'
p205
aS'55'
p206
aS'57'
p207
aa(lp208
S'34'
p209
aS'10'
p210
aS'25'
p211
aS'31'
p212
aS'64'
p213
aa(lp214
S'249'
p215
aS'165'
p216
aS'55'
p217
aS'56'
p218
aS'71'
p219
aa(lp220
S'215'
p221
aS'191'
p222
aS'344'
p223
aS'615'
p224
aS'117'
p225
aa(lp226
S'34'
p227
aS'3383'
p228
aS'320'
p229
aS'55'
p230
aS'56'
p231
aa(lp232
S'93'
p233
aS'219'
p234
aS'167'
p235
aS'141'
p236
aS'49'
p237
aa(lp238
S'37982'
p239
aS'413'
p240
aS'767'
p241
aS'2672'
p242
aS'1'
aa(lp243
S'7211'
p244
aS'817'
p245
aS'663'
p246
aS'563'
p247
aS'69'
p248
aS'9585'
p249
aa(lp250
S'199'
p251
aS'437'
p252
aS'602'
p253
aS'52'
p254
aS'8091'
p255
aa(lp256
S'34'
p257
aS'242'
p258
aS'25'
p259
aS'55'
p260
aS'71'
p261
aa(lp262
S'170'
p263
aS'25'
p264
aS'55'
p265
aS'71'
p266
aS'79'
p267
aa(lp268
S'148'
p269
aS'26'
p270
aS'31'
p271
aS'322'
p272
aS'67'
p273
aa(lp274
S'4768'
p275
aS'858'
p276
aS'119179'
p277
aS'11013'
p278
aS'486193'
p279
aa(lp280
S'5247'
p281
aS'58013'
p282
aS'37005'
p283
aS'23869'
p284
aS'119179'
p285
aS'30825'
p286
aa(lp287
S'34'
p288
aS'242'
p289
aS'25'
p290
aS'55'
p291
aS'79'
p292
aa(lp293
S'34'
p294
aS'26'
p295
aS'285'
p296
aS'67'
p297
aS'79'
p298
aa(lp299
S'2'
aS'6'
aS'10'
p300
aS'20'
p301
aS'112'
p302
aa(lp303
S'1014'
p304
aS'1753'
p305
aS'482919'
p306
aS'11900'
p307
aS'11013'
p308
aa(lp309
S'249'
p310
aS'8'
aS'31'
p311
aS'60'
p312
aS'71'
p313
aa(lp314
S'18935'
p315
aS'18743'
p316
aS'297'
p317
aS'14080'
p318
aS'53533'
p319
aa(lp320
S'174'
p321
aS'107'
p322
aS'17'
p323
aS'25'
p324
aS'80'
p325
aa(lp326
S'1245'
p327
aS'407994'
p328
aS'3824'
p329
aS'11900'
p330
aS'11013'
p331
aa(lp332
S'3932'
p333
aS'1051'
p334
aS'103'
p335
aS'585'
p336
aS'319'
p337
aa(lp338
S'2079'
p339
aS'20545'
p340
aS'1265'
p341
aS'13'
p342
aS'10'
p343
aa(lp344
S'196'
p345
aS'11463'
p346
aS'22'
p347
aS'51'
p348
aS'111'
p349
aa(lp350
S'31'
p351
aS'55'
p352
aS'65'
p353
aS'66'
p354
aS'72'
p355
aa(lp356
S'8765'
p357
aS'148'
p358
aS'25'
p359
aS'31'
p360
aS'64'
p361
aa(lp362
S'409415'
p363
aS'1014'
p364
aS'64372'
p365
aS'482919'
p366
aS'486193'
p367
aa(lp368
S'196'
p369
aS'11463'
p370
aS'22'
p371
aS'51'
p372
aS'115'
p373
aa(lp374
S'11243'
p375
aS'315'
p376
aS'583'
p377
aS'4715'
p378
aS'5233'
p379
aa(lp380
S'174'
p381
aS'107'
p382
aS'14'
p383
aS'37'
p384
aS'344'
p385
aS'118'
p386
aa(lp387
S'103'
p388
aS'146'
p389
aS'31'
p390
aS'36'
p391
aS'83'
p392
aa(lp393
S'242'
p394
aS'26'
p395
aS'1184'
p396
aS'61'
p397
aS'64'
p398
aa(lp399
S'242'
p400
aS'26'
p401
aS'1184'
p402
aS'61'
p403
aS'65'
p404
aa(lp405
S'452'
p406
aS'14'
p407
aS'49'
p408
aS'78'
p409
aS'992'
p410
aa(lp411
S'194'
p412
aS'20438'
p413
aS'349'
p414
aS'540'
p415
aS'60'
p416
aa(lp417
S'5594'
p418
aS'5'
aS'3856'
p419
aS'203'
p420
aS'31'
p421
aa(lp422
S'165'
p423
aS'26'
p424
aS'31'
p425
aS'67'
p426
aS'71'
p427
aa(lp428
S'391'
p429
aS'1077'
p430
aS'910'
p431
aS'371'
p432
aS'677'
p433
aa(lp434
S'213'
p435
aS'654'
p436
aS'556'
p437
aS'102'
p438
aS'787'
p439
aa(lp440
S'34'
p441
aS'957'
p442
aS'448'
p443
aS'543'
p444
aS'1'
aa(lp445
S'5266'
p446
aS'633'
p447
aS'2184'
p448
aS'1316'
p449
aS'15783'
p450
aa(lp451
S'90'
p452
aS'95'
p453
aS'219'
p454
aS'2618'
p455
aS'289'
p456
aa(lp457
S'796'
p458
aS'1896'
p459
aS'23'
p460
aS'8360'
p461
aS'3338'
p462
aa(lp463
S'3'
aS'23'
p464
aS'185'
p465
aS'37'
p466
aS'66'
p467
aa(lp468
S'237'
p469
aS'34'
p470
aS'228'
p471
aS'67'
p472
aS'79'
p473
aa(lp474
S'211'
p475
aS'247'
p476
aS'785'
p477
aS'37'
p478
aS'1829'
p479
aa(lp480
S'251'
p481
aS'25'
p482
aS'369'
p483
aS'75'
p484
aS'117'
p485
aa(lp486
S'229'
p487
aS'208'
p488
aS'344'
p489
aS'615'
p490
aS'117'
p491
aa(lp492
S'94'
p493
aS'56'
p494
aS'69'
p495
aS'79'
p496
aS'80'
p497
aa(lp498
S'119179'
p499
aS'1753'
p500
aS'3824'
p501
aS'11900'
p502
aS'11013'
p503
aa(lp504
S'100'
p505
aS'107'
p506
aS'208'
p507
aS'25'
p508
aS'55'
p509
aa(lp510
S'14'
p511
aS'31'
p512
aS'369'
p513
aS'75'
p514
aS'117'
p515
aa(lp516
S'4768'
p517
aS'858'
p518
aS'64372'
p519
aS'1753'
p520
aS'482919'
p521
aa(lp522
S'169923'
p523
aS'7'
aS'37'
p524
aS'3789'
p525
aS'66'
p526
aa(lp527
S'170'
p528
aS'165'
p529
aS'182'
p530
aS'56'
p531
aS'79'
p532
aa(lp533
S'146'
p534
aS'140'
p535
aS'24'
p536
aS'49'
p537
aS'1886'
p538
aa(lp539
S'26065'
p540
aS'33'
p541
aS'281'
p542
aS'52'
p543
aS'53'
p544
aa(lp545
S'25'
p546
aS'26'
p547
aS'139'
p548
aS'55'
p549
aS'57'
p550
aa(lp551
S'34'
p552
aS'57'
p553
aS'65'
p554
aS'68'
p555
aS'79'
p556
aa(lp557
S'169923'
p558
aS'1875'
p559
aS'17'
p560
aS'2273'
p561
aS'66'
p562
aa(lp563
S'1455'
p564
aS'148'
p565
aS'40998'
p566
aS'11118'
p567
aS'2027'
p568
aa(lp569
S'34'
p570
aS'957'
p571
aS'448'
p572
aS'543'
p573
aS'137'
p574
aa(lp575
S'277'
p576
aS'216'
p577
aS'223'
p578
aS'41'
p579
aS'74'
p580
aa(lp581
S'396'
p582
aS'107'
p583
aS'2190'
p584
aS'25'
p585
aS'31'
p586
aa(lp587
S'34'
p588
aS'57'
p589
aS'65'
p590
aS'68'
p591
aS'71'
p592
aa(lp593
S'68174'
p594
aS'5057'
p595
aS'24463'
p596
aS'3656'
p597
aS'107412'
p598
aa(lp599
S'15378'
p600
aS'350'
p601
aS'72'
p602
aS'1012'
p603
aS'83'
p604
aS'117'
p605
aa(lp606
S'95'
p607
aS'233'
p608
aS'161'
p609
aS'2021'
p610
aS'1449'
p611
aa(lp612
S'251'
p613
aS'2'
aS'36'
p614
aS'284'
p615
aS'87'
p616
aa(lp617
S'199'
p618
aS'13'
p619
aS'2281'
p620
aS'8091'
p621
aS'78'
p622
aa(lp623
S'14'
p624
aS'25'
p625
aS'26'
p626
aS'49'
p627
aS'55'
p628
aa(lp629
S'231'
p630
aS'31'
p631
aS'49'
p632
aS'55'
p633
aS'80'
p634
aa(lp635
S'312'
p636
aS'124'
p637
aS'1117'
p638
aS'750'
p639
aS'87'
p640
aa(lp641
S'575'
p642
aS'625722'
p643
aS'24357'
p644
aS'113589'
p645
aS'26570'
p646
aS'30825'
p647
aa(lp648
S'7454'
p649
aS'1348'
p650
aS'6359'
p651
aS'606'
p652
aS'426'
p653
aa(lp654
S'875'
p655
aS'6279'
p656
aS'9699'
p657
aS'9391'
p658
aS'714'
p659
aa(lp660
S'14'
p661
aS'31'
p662
aS'55'
p663
aS'64'
p664
aS'71'
p665
aa(lp666
S'14'
p667
aS'31'
p668
aS'55'
p669
aS'64'
p670
aS'72'
p671
aa(lp672
S'34'
p673
aS'25'
p674
aS'543'
p675
aS'1'
aS'67'
p676
aa(lp677
S'18817'
p678
aS'2586'
p679
aS'4186'
p680
aS'403'
p681
aS'4018'
p682
aa(lp683
S'451'
p684
aS'9201'
p685
aS'36894'
p686
aS'3634'
p687
aS'101376'
p688
aa(lp689
S'690'
p690
aS'5'
aS'515'
p691
aS'22'
p692
aS'343'
p693
aa(lp694
S'392818'
p695
aS'19059'
p696
aS'14563'
p697
aS'87891'
p698
aS'59807'
p699
aa(lp700
S'34'
p701
aS'26'
p702
aS'33'
p703
aS'71'
p704
aS'82'
p705
aa(lp706
S'34'
p707
aS'25'
p708
aS'55'
p709
aS'71'
p710
aS'30105'
p711
aa(lp712
S'34'
p713
aS'241'
p714
aS'25'
p715
aS'188'
p716
aS'67'
p717
aa(lp718
S'70413'
p719
aS'499825'
p720
aS'82875'
p721
aS'11480'
p722
aS'8407'
p723
aS'3572'
p724
aa(lp725
S'254'
p726
aS'227'
p727
aS'10'
p728
aS'206'
p729
aS'560'
p730
aa(lp731
S'39368'
p732
aS'6892'
p733
aS'889'
p734
aS'5193'
p735
aS'11153'
p736
aa(lp737
S'429782'
p738
aS'39304'
p739
aS'514'
p740
aS'1351'
p741
aS'1697'
p742
aa(lp743
S'34'
p744
aS'337'
p745
aS'242'
p746
aS'60'
p747
aS'64'
p748
aS'736'
p749
aa(lp750
S'174'
p751
aS'107'
p752
aS'14'
p753
aS'37'
p754
aS'80'
p755
aa(lp756
S'95'
p757
aS'1957'
p758
aS'13'
p759
aS'52'
p760
aS'8091'
p761
aa(lp762
S'169923'
p763
aS'1875'
p764
aS'17'
p765
aS'37'
p766
aS'36'
p767
aa(lp768
S'6'
aS'34'
p769
aS'26'
p770
aS'9122'
p771
aS'1984'
p772
aa(lp773
S'698354'
p774
aS'11795'
p775
aS'583'
p776
aS'18285'
p777
aS'4715'
p778
aa(lp779
S'34'
p780
aS'242'
p781
aS'26'
p782
aS'55'
p783
aS'80'
p784
aa(lp785
S'3932'
p786
aS'1051'
p787
aS'585'
p788
aS'319'
p789
aS'102839'
p790
aa(lp791
S'767'
p792
aS'10'
p793
aS'9392'
p794
aS'1088'
p795
aS'770'
p796
aa(lp797
S'93'
p798
aS'184'
p799
aS'31'
p800
aS'60'
p801
aS'71'
p802
aa(lp803
S'394'
p804
aS'31744'
p805
aS'18817'
p806
aS'34769'
p807
aS'11571'
p808
aa(lp809
S'106669'
p810
aS'7085'
p811
aS'25156'
p812
aS'488157'
p813
aS'13'
p814
aS'202003'
p815
aa(lp816
S'95'
p817
aS'192'
p818
aS'37'
p819
aS'280'
p820
aS'49'
p821
aa(lp822
S'256'
p823
aS'146'
p824
aS'10'
p825
aS'24'
p826
aS'1886'
p827
aa(lp828
S'95'
p829
aS'16069'
p830
aS'381'
p831
aS'8091'
p832
aS'78'
p833
aa(lp834
S'627'
p835
aS'247'
p836
aS'167'
p837
aS'37'
p838
aS'1829'
p839
aa(lp840
S'451'
p841
aS'9201'
p842
aS'14563'
p843
aS'59807'
p844
aS'40132'
p845
aa(lp846
S'260'
p847
aS'226'
p848
aS'186'
p849
aS'1113'
p850
aS'87'
p851
aa(lp852
S'34'
p853
aS'242'
p854
aS'26'
p855
aS'55'
p856
aS'83'
p857
aa(lp858
S'34'
p859
aS'107'
p860
aS'17'
p861
aS'25'
p862
aS'49'
p863
aa(lp864
S'211'
p865
aS'1032'
p866
aS'100'
p867
aS'204'
p868
aS'27'
p869
aa(lp870
S'437'
p871
aS'602'
p872
aS'2281'
p873
aS'8091'
p874
aS'78'
p875
aa(lp876
S'8013'
p877
aS'451'
p878
aS'9201'
p879
aS'14563'
p880
aS'15881'
p881
aa(lp882
S'256'
p883
aS'92'
p884
aS'215'
p885
aS'13'
p886
aS'1598'
p887
aa(lp888
S'8013'
p889
aS'451'
p890
aS'9201'
p891
aS'36894'
p892
aS'101376'
p893
aa(lp894
S'73938'
p895
aS'3042'
p896
aS'18926'
p897
aS'1372'
p898
aS'637'
p899
aa(lp900
S'75341'
p901
aS'1473'
p902
aS'69'
p903
aS'138'
p904
aS'68461'
p905
aa(lp906
S'34'
p907
aS'241'
p908
aS'184'
p909
aS'68'
p910
aS'79'
p911
aa(lp912
S'12'
p913
aS'10'
p914
aS'29'
p915
aS'39'
p916
aS'9'
aa(lp917
S'256'
p918
aS'572'
p919
aS'13'
p920
aS'1598'
p921
aS'87'
p922
aa(lp923
S'696'
p924
aS'1331'
p925
aS'11'
p926
aS'905'
p927
aS'8'
aa(lp928
S'690'
p929
aS'5'
aS'22'
p930
aS'542'
p931
aS'1067'
p932
aa(lp933
S'31'
p934
aS'55'
p935
aS'61'
p936
aS'65'
p937
aS'68'
p938
aa(lp939
S'31'
p940
aS'55'
p941
aS'61'
p942
aS'65'
p943
aS'69'
p944
aa(lp945
S'4951'
p946
aS'3241'
p947
aS'44'
p948
aS'83'
p949
aS'29330'
p950
aa(lp951
S'5'
aS'3036'
p952
aS'11'
p953
aS'8'
aS'47'
p954
aa(lp955
S'5'
aS'3036'
p956
aS'11'
p957
aS'8'
aS'46'
p958
aa(lp959
S'35'
p960
aS'132'
p961
aS'43'
p962
aS'51'
p963
aS'88'
p964
aa(lp965
S'34'
p966
aS'249'
p967
aS'56'
p968
aS'68'
p969
aS'79'
p970
aa(lp971
S'165'
p972
aS'26'
p973
aS'31'
p974
aS'60'
p975
aS'72'
p976
aa(lp977
S'64'
p978
aS'65'
p979
aS'66'
p980
aS'67'
p981
aS'71'
p982
aa(lp983
S'31'
p984
aS'55'
p985
aS'61'
p986
aS'65'
p987
aS'66'
p988
aa(lp989
S'34'
p990
aS'55'
p991
aS'65'
p992
aS'66'
p993
aS'72'
p994
aa(lp995
S'34'
p996
aS'290'
p997
aS'14'
p998
aS'26'
p999
aS'117'
p1000
aa(lp1001
S'103'
p1002
aS'146'
p1003
aS'140'
p1004
aS'24'
p1005
aS'20'
p1006
aa(lp1007
S'86614'
p1008
aS'69910'
p1009
aS'1070'
p1010
aS'12152'
p1011
aS'119408'
p1012
aS'73865'
p1013
aa(lp1014
S'392818'
p1015
aS'15881'
p1016
aS'3634'
p1017
aS'101376'
p1018
aS'40132'
p1019
aa(lp1020
S'90'
p1021
aS'2447'
p1022
aS'44'
p1023
aS'83'
p1024
aS'29330'
p1025
aa(lp1026
S'103'
p1027
aS'13'
p1028
aS'146'
p1029
aS'1'
aS'83'
p1030
aa(lp1031
S'12203'
p1032
aS'1227'
p1033
aS'3203'
p1034
aS'5694'
p1035
aS'28831'
p1036
aa(lp1037
S'14'
p1038
aS'25'
p1039
aS'26'
p1040
aS'69'
p1041
aS'71'
p1042
aa(lp1043
S'14'
p1044
aS'25'
p1045
aS'26'
p1046
aS'69'
p1047
aS'72'
p1048
aa(lp1049
S'34'
p1050
aS'165'
p1051
aS'55'
p1052
aS'56'
p1053
aS'71'
p1054
aa(lp1055
S'199'
p1056
aS'437'
p1057
aS'602'
p1058
aS'381'
p1059
aS'2281'
p1060
aa(lp1061
S'17'
p1062
aS'57'
p1063
aS'56'
p1064
aS'61'
p1065
aS'79'
p1066
aa(lp1067
S'23651'
p1068
aS'4454'
p1069
aS'3548'
p1070
aS'146'
p1071
aS'10723'
p1072
aa(lp1073
S'854'
p1074
aS'3436'
p1075
aS'785'
p1076
aS'137'
p1077
aS'80'
p1078
aa(lp1079
S'17'
p1080
aS'57'
p1081
aS'56'
p1082
aS'61'
p1083
aS'71'
p1084
aa(lp1085
S'47322'
p1086
aS'4951'
p1087
aS'44'
p1088
aS'83'
p1089
aS'29330'
p1090
aa(lp1091
S'1118'
p1092
aS'435'
p1093
aS'167'
p1094
aS'548'
p1095
aS'1396'
p1096
aa(lp1097
S'95'
p1098
aS'176562'
p1099
aS'16541'
p1100
aS'4699'
p1101
aS'12178'
p1102
aS'9207'
p1103
aa(lp1104
S'146'
p1105
aS'55'
p1106
aS'64'
p1107
aS'71'
p1108
aS'83'
p1109
aa(lp1110
S'2397'
p1111
aS'889'
p1112
aS'15824'
p1113
aS'648'
p1114
aS'6938'
p1115
aa(lp1116
S'215'
p1117
aS'582'
p1118
aS'66'
p1119
aS'75'
p1120
aS'117'
p1121
aa(lp1122
S'958'
p1123
aS'49'
p1124
aS'69'
p1125
aS'87'
p1126
aS'319'
p1127
aa(lp1128
S'698350'
p1129
aS'698354'
p1130
aS'446129'
p1131
aS'18285'
p1132
aS'4715'
p1133
aa(lp1134
S'315'
p1135
aS'14'
p1136
aS'583'
p1137
aS'18285'
p1138
aS'4715'
p1139
aa(lp1140
S'451'
p1141
aS'45535'
p1142
aS'1227'
p1143
aS'103635'
p1144
aS'5694'
p1145
aa(lp1146
S'165'
p1147
aS'26'
p1148
aS'182'
p1149
aS'31'
p1150
aS'56'
p1151
aa(lp1152
S'165'
p1153
aS'26'
p1154
aS'182'
p1155
aS'31'
p1156
aS'57'
p1157
aa(lp1158
S'159'
p1159
aS'312'
p1160
aS'125'
p1161
aS'25'
p1162
aS'31'
p1163
aa(lp1164
S'875'
p1165
aS'6279'
p1166
aS'9699'
p1167
aS'9391'
p1168
aS'1354'
p1169
aa(lp1170
S'2077'
p1171
aS'11105'
p1172
aS'22948'
p1173
aS'46'
p1174
aS'671'
p1175
aa(lp1176
S'2'
aS'219'
p1177
aS'5950'
p1178
aS'59'
p1179
aS'58'
p1180
aa(lp1181
S'34'
p1182
aS'241'
p1183
aS'188'
p1184
aS'56'
p1185
aS'71'
p1186
aa(lp1187
S'34'
p1188
aS'125'
p1189
aS'26'
p1190
aS'322'
p1191
aS'64'
p1192
aa(lp1193
S'34'
p1194
aS'55'
p1195
aS'66'
p1196
aS'71'
p1197
aS'117'
p1198
aa(lp1199
S'1051'
p1200
aS'5310'
p1201
aS'585'
p1202
aS'84'
p1203
aS'102839'
p1204
aa(lp1205
S'698350'
p1206
aS'11243'
p1207
aS'14'
p1208
aS'446129'
p1209
aS'583'
p1210
aa(lp1211
S'34'
p1212
aS'241'
p1213
aS'249'
p1214
aS'25'
p1215
aS'182'
p1216
aa(lp1217
S'1685'
p1218
aS'1363'
p1219
aS'1692'
p1220
aS'185'
p1221
aS'119'
p1222
aa(lp1223
S'34'
p1224
aS'55'
p1225
aS'69'
p1226
aS'72'
p1227
aS'80'
p1228
aa(lp1229
S'14'
p1230
aS'31'
p1231
aS'55'
p1232
aS'67'
p1233
aS'71'
p1234
aa(lp1235
S'8013'
p1236
aS'14563'
p1237
aS'36894'
p1238
aS'101376'
p1239
aS'20176'
p1240
aa(lp1241
S'14'
p1242
aS'31'
p1243
aS'55'
p1244
aS'67'
p1245
aS'72'
p1246
aa(lp1247
S'94'
p1248
aS'169923'
p1249
aS'263'
p1250
aS'37'
p1251
aS'66'
p1252
aa(lp1253
S'20268'
p1254
aS'697065'
p1255
aS'49632'
p1256
aS'12152'
p1257
aS'119408'
p1258
aS'19232'
p1259
aa(lp1260
S'14'
p1261
aS'25'
p1262
aS'26'
p1263
aS'64'
p1264
aS'10863'
p1265
aa(lp1266
S'215'
p1267
aS'1795'
p1268
aS'100'
p1269
aS'167'
p1270
aS'320'
p1271
aa(lp1272
S'8013'
p1273
aS'19059'
p1274
aS'15881'
p1275
aS'87891'
p1276
aS'3634'
p1277
aa(lp1278
S'236'
p1279
aS'1900'
p1280
aS'7594'
p1281
aS'425'
p1282
aS'75'
p1283
aa(lp1284
S'94'
p1285
aS'107'
p1286
aS'14'
p1287
aS'37'
p1288
aS'69'
p1289
aa(lp1290
S'315'
p1291
aS'40402'
p1292
aS'666'
p1293
aS'18305'
p1294
aS'178434'
p1295
aa(lp1296
S'371'
p1297
aS'6233'
p1298
aS'37873'
p1299
aS'10443'
p1300
aS'650'
p1301
aa(lp1302
S'32626'
p1303
aS'15881'
p1304
aS'3203'
p1305
aS'5694'
p1306
aS'28831'
p1307
aa(lp1308
S'215'
p1309
aS'229'
p1310
aS'344'
p1311
aS'615'
p1312
aS'117'
p1313
aa(lp1314
S'397'
p1315
aS'254'
p1316
aS'10'
p1317
aS'27'
p1318
aS'344'
p1319
aS'4997'
p1320
aa(lp1321
S'170'
p1322
aS'249'
p1323
aS'182'
p1324
aS'184'
p1325
aS'188'
p1326
aa(lp1327
S'34'
p1328
aS'184'
p1329
aS'188'
p1330
aS'56'
p1331
aS'79'
p1332
aa(lp1333
S'8661'
p1334
aS'291'
p1335
aS'36'
p1336
aS'69'
p1337
aS'110'
p1338
aa(lp1339
S'34'
p1340
aS'107'
p1341
aS'26'
p1342
aS'55'
p1343
aS'83'
p1344
aa(lp1345
S'174'
p1346
aS'107'
p1347
aS'14'
p1348
aS'37'
p1349
aS'69'
p1350
aa(lp1351
S'248'
p1352
aS'4042'
p1353
aS'518'
p1354
aS'466'
p1355
aS'3334'
p1356
aa(lp1357
S'179'
p1358
aS'5013'
p1359
aS'1032'
p1360
aS'204'
p1361
aS'37'
p1362
aa(lp1363
S'39368'
p1364
aS'3098'
p1365
aS'18575'
p1366
aS'6938'
p1367
aS'11153'
p1368
aa(lp1369
S'31744'
p1370
aS'914'
p1371
aS'4186'
p1372
aS'4018'
p1373
aS'24609'
p1374
aa(lp1375
S'2'
aS'146'
p1376
aS'17'
p1377
aS'58'
p1378
aS'83'
p1379
aa(lp1380
S'290'
p1381
aS'14'
p1382
aS'26'
p1383
aS'37'
p1384
aS'117'
p1385
aa(lp1386
S'94'
p1387
aS'7740'
p1388
aS'208'
p1389
aS'22'
p1390
aS'548'
p1391
aa(lp1392
S'34'
p1393
aS'26'
p1394
aS'37'
p1395
aS'57'
p1396
aS'80'
p1397
aa(lp1398
S'256'
p1399
aS'124'
p1400
aS'1117'
p1401
aS'750'
p1402
aS'87'
p1403
aa(lp1404
S'312'
p1405
aS'103'
p1406
aS'1284'
p1407
aS'1692'
p1408
aS'66'
p1409
aa(lp1410
S'35'
p1411
aS'132'
p1412
aS'43'
p1413
aS'131'
p1414
aS'88'
p1415
aa(lp1416
S'93'
p1417
aS'219'
p1418
aS'975'
p1419
aS'100'
p1420
aS'429'
p1421
aa(lp1422
S'34'
p1423
aS'10'
p1424
aS'25'
p1425
aS'31'
p1426
aS'60'
p1427
aa(lp1428
S'94'
p1429
aS'124'
p1430
aS'37'
p1431
aS'3789'
p1432
aS'66'
p1433
aa(lp1434
S'230'
p1435
aS'165'
p1436
aS'25'
p1437
aS'55'
p1438
aS'56'
p1439
aa(lp1440
S'92'
p1441
aS'31'
p1442
aS'775'
p1443
aS'71'
p1444
aS'80'
p1445
aa(lp1446
S'93'
p1447
aS'57'
p1448
aS'64'
p1449
aS'71'
p1450
aS'79'
p1451
aa(lp1452
S'1685'
p1453
aS'103'
p1454
aS'1284'
p1455
aS'1692'
p1456
aS'66'
p1457
aa(lp1458
S'90'
p1459
aS'141'
p1460
aS'289'
p1461
aS'49'
p1462
aS'80'
p1463
aa(lp1464
S'34'
p1465
aS'165'
p1466
aS'55'
p1467
aS'56'
p1468
aS'72'
p1469
aa(lp1470
S'93'
p1471
aS'141'
p1472
aS'37'
p1473
aS'67'
p1474
aS'118'
p1475
aa(lp1476
S'337'
p1477
aS'26'
p1478
aS'1184'
p1479
aS'61'
p1480
aS'64'
p1481
aa(lp1482
S'179'
p1483
aS'5013'
p1484
aS'1032'
p1485
aS'204'
p1486
aS'785'
p1487
aa(lp1488
S'8013'
p1489
aS'14563'
p1490
aS'36894'
p1491
aS'59807'
p1492
aS'40132'
p1493
aa(lp1494
S'34'
p1495
aS'165'
p1496
aS'55'
p1497
aS'56'
p1498
aS'79'
p1499
aa(lp1500
S'34'
p1501
aS'242'
p1502
aS'37'
p1503
aS'64'
p1504
aS'83'
p1505
aa(lp1506
S'94'
p1507
aS'7740'
p1508
aS'167'
p1509
aS'3237'
p1510
aS'1396'
p1511
aa(lp1512
S'14'
p1513
aS'31'
p1514
aS'55'
p1515
aS'60'
p1516
aS'61'
p1517
aa(lp1518
S'137046'
p1519
aS'502336'
p1520
aS'7106'
p1521
aS'15881'
p1522
aS'28831'
p1523
aa(lp1524
S'14'
p1525
aS'31'
p1526
aS'55'
p1527
aS'60'
p1528
aS'67'
p1529
aa(lp1530
S'34'
p1531
aS'107'
p1532
aS'14'
p1533
aS'37'
p1534
aS'60'
p1535
aa(lp1536
S'14'
p1537
aS'31'
p1538
aS'55'
p1539
aS'60'
p1540
aS'69'
p1541
aa(lp1542
S'199'
p1543
aS'1422'
p1544
aS'1034'
p1545
aS'566'
p1546
aS'43'
p1547
aa(lp1548
S'8853'
p1549
aS'6598'
p1550
aS'5299'
p1551
aS'7375'
p1552
aS'4325'
p1553
aa(lp1554
S'4574'
p1555
aS'499'
p1556
aS'400'
p1557
aS'418'
p1558
aS'2367'
p1559
aS'1064'
p1560
aa(lp1561
S'26'
p1562
aS'184'
p1563
aS'188'
p1564
aS'67'
p1565
aS'71'
p1566
aa(lp1567
S'1245'
p1568
aS'6201'
p1569
aS'1753'
p1570
aS'3824'
p1571
aS'11900'
p1572
aa(lp1573
S'986'
p1574
aS'167'
p1575
aS'208'
p1576
aS'1829'
p1577
aS'65'
p1578
aa(lp1579
S'6218'
p1580
aS'3643'
p1581
aS'3521'
p1582
aS'49'
p1583
aS'3220'
p1584
aa(lp1585
S'19059'
p1586
aS'9201'
p1587
aS'36894'
p1588
aS'101376'
p1589
aS'40132'
p1590
aa(lp1591
S'1875'
p1592
aS'17'
p1593
aS'37'
p1594
aS'3789'
p1595
aS'66'
p1596
aa(lp1597
S'889'
p1598
aS'3098'
p1599
aS'18575'
p1600
aS'6938'
p1601
aS'11153'
p1602
aa(lp1603
S'159'
p1604
aS'5'
aS'22'
p1605
aS'542'
p1606
aS'1067'
p1607
aa(lp1608
S'26'
p1609
aS'184'
p1610
aS'188'
p1611
aS'67'
p1612
aS'79'
p1613
aa(lp1614
S'25'
p1615
aS'26'
p1616
aS'37'
p1617
aS'287'
p1618
aS'68'
p1619
aa(lp1620
S'14'
p1621
aS'25'
p1622
aS'57'
p1623
aS'56'
p1624
aS'87'
p1625
aa(lp1626
S'550'
p1627
aS'3152'
p1628
aS'9955'
p1629
aS'8'
aS'4'
aa(lp1630
S'5519'
p1631
aS'125'
p1632
aS'203'
p1633
aS'66'
p1634
aS'133'
p1635
aa(lp1636
S'5'
aS'13'
p1637
aS'1'
aS'1007'
p1638
aS'112'
p1639
aa(lp1640
S'137046'
p1641
aS'502336'
p1642
aS'7106'
p1643
aS'3303'
p1644
aS'5694'
p1645
aa(lp1646
S'52461'
p1647
aS'666'
p1648
aS'9898'
p1649
aS'1613'
p1650
aS'2101'
p1651
aa(lp1652
S'34'
p1653
aS'249'
p1654
aS'165'
p1655
aS'25'
p1656
aS'65'
p1657
aa(lp1658
S'337'
p1659
aS'56'
p1660
aS'65'
p1661
aS'79'
p1662
aS'80'
p1663
aa(lp1664
S'95'
p1665
aS'462'
p1666
aS'378'
p1667
aS'19'
p1668
aS'49'
p1669
aa(lp1670
S'407994'
p1671
aS'1753'
p1672
aS'3824'
p1673
aS'11900'
p1674
aS'11013'
p1675
aa(lp1676
S'8191'
p1677
aS'12145'
p1678
aS'14'
p1679
aS'846'
p1680
aS'3338'
p1681
aa(lp1682
S'4768'
p1683
aS'1245'
p1684
aS'6201'
p1685
aS'1753'
p1686
aS'246580'
p1687
aa(lp1688
S'3'
aS'26'
p1689
aS'185'
p1690
aS'37'
p1691
aS'66'
p1692
aa(lp1693
S'109398'
p1694
aS'12481'
p1695
aS'121863'
p1696
aS'3821'
p1697
aS'1012'
p1698
aa(lp1699
S'34'
p1700
aS'337'
p1701
aS'242'
p1702
aS'60'
p1703
aS'67'
p1704
aS'79'
p1705
aa(lp1706
S'271'
p1707
aS'359'
p1708
aS'12119'
p1709
aS'2597'
p1710
aS'1500'
p1711
aa(lp1712
S'230'
p1713
aS'182'
p1714
aS'188'
p1715
aS'31'
p1716
aS'57'
p1717
aa(lp1718
S'1227'
p1719
aS'107'
p1720
aS'13'
p1721
aS'46441'
p1722
aS'5694'
p1723
aa(lp1724
S'7719'
p1725
aS'50970'
p1726
aS'28410'
p1727
aS'10443'
p1728
aS'650'
p1729
aa(lp1730
S'35'
p1731
aS'132'
p1732
aS'43'
p1733
aS'51'
p1734
aS'131'
p1735
aa(lp1736
S'34'
p1737
aS'337'
p1738
aS'242'
p1739
aS'60'
p1740
aS'67'
p1741
aS'71'
p1742
aa(lp1743
S'254'
p1744
aS'227'
p1745
aS'666'
p1746
aS'206'
p1747
aS'37'
p1748
aa(lp1749
S'854'
p1750
aS'3436'
p1751
aS'785'
p1752
aS'322'
p1753
aS'320'
p1754
aa(lp1755
S'5'
aS'13'
p1756
aS'146'
p1757
aS'1'
aS'83'
p1758
aa(lp1759
S'1342'
p1760
aS'17059'
p1761
aS'22'
p1762
aS'458170'
p1763
aS'8127'
p1764
aa(lp1765
S'34'
p1766
aS'241'
p1767
aS'25'
p1768
aS'61'
p1769
aS'79'
p1770
aa(lp1771
S'317'
p1772
aS'2405'
p1773
aS'7'
aS'19'
p1774
aS'9'
aa(lp1775
S'25'
p1776
aS'322'
p1777
aS'56'
p1778
aS'61'
p1779
aS'71'
p1780
aa(lp1781
S'256'
p1782
aS'572'
p1783
aS'13'
p1784
aS'1117'
p1785
aS'87'
p1786
aa(lp1787
S'407994'
p1788
aS'1753'
p1789
aS'482919'
p1790
aS'11900'
p1791
aS'11013'
p1792
aa(lp1793
S'64372'
p1794
aS'1753'
p1795
aS'482919'
p1796
aS'11900'
p1797
aS'11013'
p1798
aa(lp1799
S'394'
p1800
aS'914'
p1801
aS'2586'
p1802
aS'403'
p1803
aS'79295'
p1804
aa(lp1805
S'6'
aS'34'
p1806
aS'9122'
p1807
aS'1984'
p1808
aS'71'
p1809
aa(lp1810
S'13111'
p1811
aS'19059'
p1812
aS'9201'
p1813
aS'101376'
p1814
aS'20176'
p1815
aa(lp1816
S'34'
p1817
aS'242'
p1818
aS'26'
p1819
aS'31'
p1820
aS'80'
p1821
aa(lp1822
S'1530'
p1823
aS'15881'
p1824
aS'87891'
p1825
aS'59807'
p1826
aS'40132'
p1827
aa(lp1828
S'34'
p1829
aS'25'
p1830
aS'66'
p1831
aS'71'
p1832
aS'117'
p1833
aa(lp1834
S'34'
p1835
aS'242'
p1836
aS'26'
p1837
aS'31'
p1838
aS'84'
p1839
aa(lp1840
S'34'
p1841
aS'285'
p1842
aS'57'
p1843
aS'56'
p1844
aS'87'
p1845
aa(lp1846
S'2032'
p1847
aS'390'
p1848
aS'14'
p1849
aS'13269'
p1850
aS'2938'
p1851
aa(lp1852
S'14'
p1853
aS'25'
p1854
aS'26'
p1855
aS'49'
p1856
aS'80'
p1857
aa(lp1858
S'95'
p1859
aS'192'
p1860
aS'269'
p1861
aS'37'
p1862
aS'69'
p1863
aa(lp1864
S'34'
p1865
aS'57'
p1866
aS'64'
p1867
aS'71'
p1868
aS'79'
p1869
aa(lp1870
S'16069'
p1871
aS'437'
p1872
aS'43'
p1873
aS'52'
p1874
aS'8091'
p1875
aa(lp1876
S'94549'
p1877
aS'18935'
p1878
aS'7492'
p1879
aS'654'
p1880
aS'3824'
p1881
aa(lp1882
S'57611'
p1883
aS'14'
p1884
aS'25'
p1885
aS'55'
p1886
aS'56'
p1887
aa(lp1888
S'137046'
p1889
aS'7106'
p1890
aS'1227'
p1891
aS'103635'
p1892
aS'5694'
p1893
aa(lp1894
S'94'
p1895
aS'1650'
p1896
aS'1506'
p1897
aS'4560'
p1898
aS'78'
p1899
aa(lp1900
S'211'
p1901
aS'5013'
p1902
aS'1032'
p1903
aS'100'
p1904
aS'204'
p1905
aa(lp1906
S'479'
p1907
aS'61'
p1908
aS'67'
p1909
aS'68'
p1910
aS'79'
p1911
aa(lp1912
S'190'
p1913
aS'23824'
p1914
aS'10004'
p1915
aS'32434'
p1916
aS'75'
p1917
aa(lp1918
S'103'
p1919
aS'146'
p1920
aS'60'
p1921
aS'68'
p1922
aS'80'
p1923
aa(lp1924
S'103'
p1925
aS'146'
p1926
aS'60'
p1927
aS'68'
p1928
aS'83'
p1929
aa(lp1930
S'107'
p1931
aS'146'
p1932
aS'25'
p1933
aS'64'
p1934
aS'83'
p1935
aa(lp1936
S'6'
aS'21599'
p1937
aS'103'
p1938
aS'27'
p1939
aS'83'
p1940
aa(lp1941
S'8013'
p1942
aS'451'
p1943
aS'9201'
p1944
aS'1530'
p1945
aS'34818'
p1946
aa(lp1947
S'6'
aS'21599'
p1948
aS'103'
p1949
aS'27'
p1950
aS'84'
p1951
aa(lp1952
S'2'
aS'26'
p1953
aS'33'
p1954
aS'71'
p1955
aS'82'
p1956
aa(lp1957
S'34'
p1958
aS'125'
p1959
aS'26'
p1960
aS'55'
p1961
aS'87'
p1962
aa(lp1963
S'25'
p1964
aS'26'
p1965
aS'49'
p1966
aS'56'
p1967
aS'61'
p1968
aa(lp1969
S'310'
p1970
aS'572'
p1971
aS'1117'
p1972
aS'52'
p1973
aS'5328'
p1974
aa(lp1975
S'26749'
p1976
aS'8787'
p1977
aS'6131'
p1978
aS'4889'
p1979
aS'20557'
p1980
aa(lp1981
S'37005'
p1982
aS'24357'
p1983
aS'113589'
p1984
aS'26570'
p1985
aS'82875'
p1986
aS'3572'
p1987
aa(lp1988
S'796'
p1989
aS'1896'
p1990
aS'23'
p1991
aS'30205'
p1992
aS'8360'
p1993
aa(lp1994
S'145'
p1995
aS'123'
p1996
aS'43'
p1997
aS'64'
p1998
aS'73'
p1999
aa(lp2000
S'13111'
p2001
aS'9201'
p2002
aS'36894'
p2003
aS'101376'
p2004
aS'40132'
p2005
aa(lp2006
S'34'
p2007
aS'241'
p2008
aS'184'
p2009
aS'61'
p2010
aS'79'
p2011
aa(lp2012
S'34'
p2013
aS'241'
p2014
aS'26'
p2015
aS'68'
p2016
aS'79'
p2017
aa(lp2018
S'31'
p2019
aS'55'
p2020
aS'65'
p2021
aS'68'
p2022
aS'134'
p2023
aa(lp2024
S'690'
p2025
aS'515'
p2026
aS'22'
p2027
aS'542'
p2028
aS'1067'
p2029
aa(lp2030
S'18935'
p2031
aS'18743'
p2032
aS'590709'
p2033
aS'7589'
p2034
aS'38924'
p2035
aa(lp2036
S'34'
p2037
aS'241'
p2038
aS'184'
p2039
aS'61'
p2040
aS'71'
p2041
aa(lp2042
S'34'
p2043
aS'241'
p2044
aS'26'
p2045
aS'68'
p2046
aS'71'
p2047
aa(lp2048
S'90'
p2049
aS'391'
p2050
aS'910'
p2051
aS'26355'
p2052
aS'677'
p2053
aa(lp2054
S'237'
p2055
aS'34'
p2056
aS'182'
p2057
aS'184'
p2058
aS'55'
p2059
aa(lp2060
S'169923'
p2061
aS'124'
p2062
aS'37'
p2063
aS'3789'
p2064
aS'66'
p2065
aa(lp2066
S'451'
p2067
aS'45535'
p2068
aS'1227'
p2069
aS'103635'
p2070
aS'13'
p2071
aa(lp2072
S'199'
p2073
aS'160'
p2074
aS'306'
p2075
aS'566'
p2076
aS'43'
p2077
aa(lp2078
S'10880'
p2079
aS'178'
p2080
aS'10462'
p2081
aS'8345'
p2082
aS'52'
p2083
aa(lp2084
S'811'
p2085
aS'2072'
p2086
aS'553'
p2087
aS'689'
p2088
aS'365'
p2089
aa(lp2090
S'140'
p2091
aS'17'
p2092
aS'27'
p2093
aS'89'
p2094
aS'83'
p2095
aa(lp2096
S'99'
p2097
aS'159'
p2098
aS'107'
p2099
aS'166'
p2100
aS'19129'
p2101
aa(lp2102
S'179'
p2103
aS'211'
p2104
aS'5013'
p2105
aS'100'
p2106
aS'204'
p2107
aa(lp2108
S'34'
p2109
aS'241'
p2110
aS'25'
p2111
aS'188'
p2112
aS'31'
p2113
aa(lp2114
S'8013'
p2115
aS'9201'
p2116
aS'14563'
p2117
aS'59807'
p2118
aS'18512'
p2119
aa(lp2120
S'14'
p2121
aS'31'
p2122
aS'55'
p2123
aS'60'
p2124
aS'87'
p2125
aa(lp2126
S'90'
p2127
aS'3'
aS'30285'
p2128
aS'39'
p2129
aS'45'
p2130
aa(lp2131
S'18'
p2132
aS'23'
p2133
aS'185'
p2134
aS'37'
p2135
aS'66'
p2136
aa(lp2137
S'310'
p2138
aS'320'
p2139
aS'1117'
p2140
aS'52'
p2141
aS'5328'
p2142
aa(lp2143
S'179'
p2144
aS'211'
p2145
aS'100'
p2146
aS'167'
p2147
aS'280'
p2148
aa(lp2149
S'34'
p2150
aS'227'
p2151
aS'924'
p2152
aS'25'
p2153
aS'31'
p2154
aa(lp2155
S'34'
p2156
aS'242'
p2157
aS'26'
p2158
aS'66'
p2159
aS'67'
p2160
aa(lp2161
S'251'
p2162
aS'14'
p2163
aS'26'
p2164
aS'37'
p2165
aS'117'
p2166
aa(lp2167
S'94'
p2168
aS'7740'
p2169
aS'1629'
p2170
aS'167'
p2171
aS'429'
p2172
aa(lp2173
S'94'
p2174
aS'14'
p2175
aS'203'
p2176
aS'66'
p2177
aS'72'
p2178
aa(lp2179
S'92'
p2180
aS'215'
p2181
aS'124'
p2182
aS'13'
p2183
aS'1117'
p2184
aa(lp2185
S'409415'
p2186
aS'1753'
p2187
aS'3824'
p2188
aS'11900'
p2189
aS'11013'
p2190
aa(lp2191
S'93'
p2192
aS'26'
p2193
aS'37'
p2194
aS'287'
p2195
aS'68'
p2196
aa(lp2197
S'34'
p2198
aS'25'
p2199
aS'322'
p2200
aS'56'
p2201
aS'71'
p2202
aa(lp2203
S'90'
p2204
aS'95'
p2205
aS'219'
p2206
aS'4950'
p2207
aS'141'
p2208
aa(lp2209
S'271'
p2210
aS'154'
p2211
aS'206'
p2212
aS'369'
p2213
aS'1500'
p2214
aa(lp2215
S'236'
p2216
aS'14'
p2217
aS'44'
p2218
aS'79'
p2219
aS'83'
p2220
aa(lp2221
S'1455'
p2222
aS'148'
p2223
aS'723'
p2224
aS'36927'
p2225
aS'2027'
p2226
aa(lp2227
S'145'
p2228
aS'102'
p2229
aS'4229'
p2230
aS'16980'
p2231
aS'3612'
p2232
aa(lp2233
S'14'
p2234
aS'25'
p2235
aS'26'
p2236
aS'322'
p2237
aS'66'
p2238
aa(lp2239
S'179'
p2240
aS'211'
p2241
aS'5013'
p2242
aS'100'
p2243
aS'167'
p2244
aa(lp2245
S'34'
p2246
aS'242'
p2247
aS'26'
p2248
aS'64'
p2249
aS'84'
p2250
aa(lp2251
S'230'
p2252
aS'34'
p2253
aS'165'
p2254
aS'182'
p2255
aS'65'
p2256
aa(lp2257
S'34'
p2258
aS'242'
p2259
aS'26'
p2260
aS'64'
p2261
aS'80'
p2262
aa(lp2263
S'394'
p2264
aS'2586'
p2265
aS'4186'
p2266
aS'403'
p2267
aS'79295'
p2268
aa(lp2269
S'306842'
p2270
aS'119179'
p2271
aS'1245'
p2272
aS'246580'
p2273
aS'3824'
p2274
aa(lp2275
S'10880'
p2276
aS'178'
p2277
aS'10462'
p2278
aS'8345'
p2279
aS'74'
p2280
aa(lp2281
S'684'
p2282
aS'825'
p2283
aS'941'
p2284
aS'530'
p2285
aS'9'
aa(lp2286
S'34'
p2287
aS'10'
p2288
aS'26'
p2289
aS'56'
p2290
aS'79'
p2291
aa(lp2292
S'3'
aS'14'
p2293
aS'185'
p2294
aS'47'
p2295
aS'71'
p2296
aa(lp2297
S'13'
p2298
aS'146'
p2299
aS'22'
p2300
aS'36'
p2301
aS'80'
p2302
aa(lp2303
S'13'
p2304
aS'146'
p2305
aS'22'
p2306
aS'36'
p2307
aS'83'
p2308
aa(lp2309
S'1348'
p2310
aS'247513'
p2311
aS'3110'
p2312
aS'13'
p2313
aS'69000'
p2314
aS'53362'
p2315
aa(lp2316
S'93'
p2317
aS'94'
p2318
aS'1315'
p2319
aS'66'
p2320
aS'134'
p2321
aa(lp2322
S'103'
p2323
aS'242'
p2324
aS'25'
p2325
aS'31'
p2326
aS'64'
p2327
aa(lp2328
S'290'
p2329
aS'7520'
p2330
aS'8625'
p2331
aS'1169'
p2332
aS'442'
p2333
aa(lp2334
S'34'
p2335
aS'25'
p2336
aS'322'
p2337
aS'57'
p2338
aS'71'
p2339
aa(lp2340
S'1685'
p2341
aS'103'
p2342
aS'1284'
p2343
aS'1692'
p2344
aS'185'
p2345
aa(lp2346
S'107'
p2347
aS'146'
p2348
aS'31'
p2349
aS'60'
p2350
aS'71'
p2351
aa(lp2352
S'26'
p2353
aS'8'
aS'57'
p2354
aS'56'
p2355
aS'79'
p2356
aa(lp2357
S'8013'
p2358
aS'9201'
p2359
aS'36894'
p2360
aS'3634'
p2361
aS'101376'
p2362
aa(lp2363
S'227'
p2364
aS'14'
p2365
aS'206'
p2366
aS'2445'
p2367
aS'1238'
p2368
aa(lp2369
S'13111'
p2370
aS'9201'
p2371
aS'14563'
p2372
aS'59807'
p2373
aS'18512'
p2374
aa(lp2375
S'25'
p2376
aS'26'
p2377
aS'37'
p2378
aS'57'
p2379
aS'80'
p2380
aa(lp2381
S'7185'
p2382
aS'8686'
p2383
aS'10101'
p2384
aS'3243'
p2385
aS'12'
p2386
aa(lp2387
S'34'
p2388
aS'957'
p2389
aS'8962'
p2390
aS'25'
p2391
aS'1'
aa(lp2392
S'5247'
p2393
aS'58013'
p2394
aS'37005'
p2395
aS'23869'
p2396
aS'119179'
p2397
aS'70413'
p2398
aa(lp2399
S'4768'
p2400
aS'409415'
p2401
aS'3824'
p2402
aS'11900'
p2403
aS'11013'
p2404
aa(lp2405
S'231'
p2406
aS'6'
aS'14'
p2407
aS'20'
p2408
aS'33'
p2409
aS'731'
p2410
aa(lp2411
S'197'
p2412
aS'20438'
p2413
aS'41'
p2414
aS'540'
p2415
aS'68'
p2416
aa(lp2417
S'31'
p2418
aS'55'
p2419
aS'69'
p2420
aS'72'
p2421
aS'80'
p2422
aa(lp2423
S'337'
p2424
aS'26'
p2425
aS'31'
p2426
aS'67'
p2427
aS'71'
p2428
aa(lp2429
S'34'
p2430
aS'107'
p2431
aS'26'
p2432
aS'55'
p2433
aS'80'
p2434
aa(lp2435
S'200'
p2436
aS'26'
p2437
aS'307'
p2438
aS'55'
p2439
aS'84'
p2440
aa(lp2441
S'40'
p2442
aS'66'
p2443
aS'775'
p2444
aS'75'
p2445
aS'80'
p2446
aa(lp2447
S'176'
p2448
aS'198'
p2449
aS'261'
p2450
aS'107'
p2451
aS'160'
p2452
aa(lp2453
S'14'
p2454
aS'31'
p2455
aS'55'
p2456
aS'65'
p2457
aS'66'
p2458
aa(lp2459
S'2'
aS'27'
p2460
aS'8'
aS'4'
aS'5755'
p2461
aa(lp2462
S'100'
p2463
aS'167'
p2464
aS'208'
p2465
aS'1829'
p2466
aS'65'
p2467
aa(lp2468
S'3'
aS'2635'
p2469
aS'106079'
p2470
aS'2003'
p2471
aS'37'
p2472
aa(lp2473
S'34'
p2474
aS'2692'
p2475
aS'303'
p2476
aS'57'
p2477
aS'753'
p2478
aa(lp2479
S'624'
p2480
aS'143'
p2481
aS'16473'
p2482
aS'88'
p2483
aS'118'
p2484
aa(lp2485
S'241'
p2486
aS'31'
p2487
aS'55'
p2488
aS'71'
p2489
aS'79'
p2490
aa(lp2491
S'31'
p2492
aS'55'
p2493
aS'66'
p2494
aS'71'
p2495
aS'117'
p2496
aa(lp2497
S'394'
p2498
aS'31744'
p2499
aS'914'
p2500
aS'403'
p2501
aS'79295'
p2502
aa(lp2503
S'34'
p2504
aS'25'
p2505
aS'56'
p2506
aS'61'
p2507
aS'79'
p2508
aa(lp2509
S'237'
p2510
aS'34'
p2511
aS'25'
p2512
aS'61'
p2513
aS'79'
p2514
aa(lp2515
S'1014'
p2516
aS'1753'
p2517
aS'3824'
p2518
aS'11900'
p2519
aS'11013'
p2520
aa(lp2521
S'437'
p2522
aS'13'
p2523
aS'2281'
p2524
aS'8091'
p2525
aS'78'
p2526
aa(lp2527
S'258'
p2528
aS'234'
p2529
aS'440'
p2530
aS'3691'
p2531
aS'322'
p2532
aa(lp2533
S'237'
p2534
aS'34'
p2535
aS'228'
p2536
aS'182'
p2537
aS'31'
p2538
aa(lp2539
S'34'
p2540
aS'25'
p2541
aS'56'
p2542
aS'61'
p2543
aS'71'
p2544
aa(lp2545
S'256'
p2546
aS'92'
p2547
aS'215'
p2548
aS'66'
p2549
aS'87'
p2550
aa(lp2551
S'159'
p2552
aS'25'
p2553
aS'26'
p2554
aS'68'
p2555
aS'71'
p2556
aa(lp2557
S'38833'
p2558
aS'11'
p2559
aS'8'
aS'39'
p2560
aS'35'
p2561
aa(lp2562
S'14'
p2563
aS'25'
p2564
aS'26'
p2565
aS'322'
p2566
aS'61'
p2567
aa(lp2568
S'831'
p2569
aS'1864'
p2570
aS'4753'
p2571
aS'186'
p2572
aS'6999'
p2573
aa(lp2574
S'149'
p2575
aS'26'
p2576
aS'49'
p2577
aS'57'
p2578
aS'66'
p2579
aa(lp2580
S'1166'
p2581
aS'208'
p2582
aS'26'
p2583
aS'31'
p2584
aS'66'
p2585
aa(lp2586
S'37'
p2587
aS'55'
p2588
aS'69'
p2589
aS'72'
p2590
aS'80'
p2591
aa(lp2592
S'214'
p2593
aS'102586'
p2594
aS'788'
p2595
aS'480'
p2596
aS'1'
aa(lp2597
S'103'
p2598
aS'146'
p2599
aS'31'
p2600
aS'60'
p2601
aS'71'
p2602
aa(lp2603
S'1669'
p2604
aS'10'
p2605
aS'56'
p2606
aS'61'
p2607
aS'79'
p2608
aa(lp2609
S'14'
p2610
aS'25'
p2611
aS'26'
p2612
aS'67'
p2613
aS'72'
p2614
aa(lp2615
S'26'
p2616
aS'22'
p2617
aS'55'
p2618
aS'67'
p2619
aS'71'
p2620
aa(lp2621
S'68174'
p2622
aS'24463'
p2623
aS'101'
p2624
aS'3656'
p2625
aS'1410'
p2626
aa(lp2627
S'429782'
p2628
aS'39304'
p2629
aS'514'
p2630
aS'69'
p2631
aS'7824'
p2632
aa(lp2633
S'170'
p2634
aS'6'
aS'31'
p2635
aS'60'
p2636
aS'71'
p2637
aa(lp2638
S'3977'
p2639
aS'204'
p2640
aS'66'
p2641
aS'75'
p2642
aS'117'
p2643
aa(lp2644
S'107385'
p2645
aS'93733'
p2646
aS'179989'
p2647
aS'2509'
p2648
aS'94758'
p2649
aa(lp2650
S'234'
p2651
aS'1778'
p2652
aS'49'
p2653
aS'19312'
p2654
aS'713'
p2655
aa(lp2656
S'8196'
p2657
aS'371'
p2658
aS'18454'
p2659
aS'65345'
p2660
aS'3725'
p2661
aa(lp2662
S'2236'
p2663
aS'493477'
p2664
aS'25838'
p2665
aS'1040'
p2666
aS'7931'
p2667
aa(lp2668
S'4785'
p2669
aS'17'
p2670
aS'23'
p2671
aS'181'
p2672
aS'59'
p2673
aa(lp2674
S'15816'
p2675
aS'25'
p2676
aS'56'
p2677
aS'61'
p2678
aS'79'
p2679
aa(lp2680
S'90'
p2681
aS'4950'
p2682
aS'167'
p2683
aS'289'
p2684
aS'78'
p2685
aa(lp2686
S'219'
p2687
aS'490'
p2688
aS'463'
p2689
aS'169'
p2690
aS'78'
p2691
aa(lp2692
S'6'
aS'3213'
p2693
aS'27'
p2694
aS'185'
p2695
aS'2623'
p2696
aa(lp2697
S'44240'
p2698
aS'49792'
p2699
aS'326925'
p2700
aS'261640'
p2701
aS'3110'
p2702
aS'6477'
p2703
aa(lp2704
S'392818'
p2705
aS'19059'
p2706
aS'14563'
p2707
aS'87891'
p2708
aS'34818'
p2709
aa(lp2710
S'190'
p2711
aS'23824'
p2712
aS'10004'
p2713
aS'37'
p2714
aS'69'
p2715
aa(lp2716
S'8013'
p2717
aS'14563'
p2718
aS'36894'
p2719
aS'1530'
p2720
aS'40132'
p2721
aa(lp2722
S'151'
p2723
aS'462'
p2724
aS'1829'
p2725
aS'66'
p2726
aS'134'
p2727
aa(lp2728
S'202'
p2729
aS'1123'
p2730
aS'22'
p2731
aS'322'
p2732
aS'68'
p2733
aS'79'
p2734
aa(lp2735
S'413'
p2736
aS'1434'
p2737
aS'40'
p2738
aS'4385'
p2739
aS'2108'
p2740
aa(lp2741
S'5'
aS'103'
p2742
aS'13'
p2743
aS'29'
p2744
aS'4'
aa(lp2745
S'95'
p2746
aS'16069'
p2747
aS'199'
p2748
aS'381'
p2749
aS'43'
p2750
aa(lp2751
S'14'
p2752
aS'31'
p2753
aS'55'
p2754
aS'64'
p2755
aS'69'
p2756
aa(lp2757
S'14'
p2758
aS'31'
p2759
aS'55'
p2760
aS'64'
p2761
aS'68'
p2762
aa(lp2763
S'14'
p2764
aS'31'
p2765
aS'55'
p2766
aS'64'
p2767
aS'67'
p2768
aa(lp2769
S'14'
p2770
aS'31'
p2771
aS'55'
p2772
aS'64'
p2773
aS'66'
p2774
aa(lp2775
S'14'
p2776
aS'31'
p2777
aS'55'
p2778
aS'64'
p2779
aS'65'
p2780
aa(lp2781
S'69910'
p2782
aS'335'
p2783
aS'439'
p2784
aS'73865'
p2785
aS'138274'
p2786
aS'125348'
p2787
aa(lp2788
S'337'
p2789
aS'10'
p2790
aS'26'
p2791
aS'56'
p2792
aS'79'
p2793
aa(lp2794
S'56'
p2795
aS'67'
p2796
aS'69'
p2797
aS'79'
p2798
aS'80'
p2799
aa(lp2800
S'94'
p2801
aS'234'
p2802
aS'37'
p2803
aS'56'
p2804
aS'83'
p2805
aa(lp2806
S'34'
p2807
aS'241'
p2808
aS'184'
p2809
aS'64'
p2810
aS'71'
p2811
aa(lp2812
S'14'
p2813
aS'25'
p2814
aS'56'
p2815
aS'52'
p2816
aS'87'
p2817
aa(lp2818
S'95'
p2819
aS'226'
p2820
aS'25'
p2821
aS'31'
p2822
aS'60'
p2823
aa(lp2824
S'391'
p2825
aS'49225'
p2826
aS'55308'
p2827
aS'6282'
p2828
aS'24515'
p2829
aa(lp2830
S'306842'
p2831
aS'119179'
p2832
aS'1245'
p2833
aS'482919'
p2834
aS'9095'
p2835
aa(lp2836
S'148'
p2837
aS'583'
p2838
aS'723'
p2839
aS'36927'
p2840
aS'2027'
p2841
aa(lp2842
S'8013'
p2843
aS'451'
p2844
aS'9201'
p2845
aS'14563'
p2846
aS'1530'
p2847
aa(lp2848
S'14'
p2849
aS'25'
p2850
aS'26'
p2851
aS'55'
p2852
aS'87'
p2853
aa(lp2854
S'179'
p2855
aS'211'
p2856
aS'627'
p2857
aS'1032'
p2858
aS'27'
p2859
aa(lp2860
S'44200'
p2861
aS'1190'
p2862
aS'2479'
p2863
aS'8146'
p2864
aS'73'
p2865
aa(lp2866
S'312'
p2867
aS'103'
p2868
aS'1284'
p2869
aS'1692'
p2870
aS'185'
p2871
aa(lp2872
S'3932'
p2873
aS'5310'
p2874
aS'585'
p2875
aS'84'
p2876
aS'102839'
p2877
aa(lp2878
S'1669'
p2879
aS'10'
p2880
aS'55'
p2881
aS'64'
p2882
aS'67'
p2883
aa(lp2884
S'170'
p2885
aS'57'
p2886
aS'64'
p2887
aS'71'
p2888
aS'79'
p2889
aa(lp2890
S'256'
p2891
aS'6'
aS'10'
p2892
aS'49'
p2893
aS'83'
p2894
aa(lp2895
S'34'
p2896
aS'13'
p2897
aS'379'
p2898
aS'55'
p2899
aS'53'
p2900
aa(lp2901
S'151'
p2902
aS'234'
p2903
aS'380'
p2904
aS'100'
p2905
aS'542'
p2906
aa(lp2907
S'308'
p2908
aS'57'
p2909
aS'56'
p2910
aS'61'
p2911
aS'71'
p2912
aa(lp2913
S'34'
p2914
aS'13'
p2915
aS'379'
p2916
aS'55'
p2917
aS'57'
p2918
aa(lp2919
S'6'
aS'3036'
p2920
aS'89366'
p2921
aS'8'
aS'4'
aa(lp2922
S'31'
p2923
aS'55'
p2924
aS'61'
p2925
aS'66'
p2926
aS'117'
p2927
aa(lp2928
S'622'
p2929
aS'1019'
p2930
aS'52'
p2931
aS'66'
p2932
aS'110'
p2933
aa(lp2934
S'693'
p2935
aS'3436'
p2936
aS'11555'
p2937
aS'320'
p2938
aS'137'
p2939
aa(lp2940
S'308'
p2941
aS'57'
p2942
aS'56'
p2943
aS'61'
p2944
aS'79'
p2945
aa(lp2946
S'34'
p2947
aS'125'
p2948
aS'14'
p2949
aS'26'
p2950
aS'56'
p2951
aS'79'
p2952
aa(lp2953
S'170'
p2954
aS'11164'
p2955
aS'165'
p2956
aS'184'
p2957
aS'467'
p2958
aa(lp2959
S'249'
p2960
aS'165'
p2961
aS'25'
p2962
aS'184'
p2963
aS'55'
p2964
aa(lp2965
S'86614'
p2966
aS'697065'
p2967
aS'102'
p2968
aS'4688'
p2969
aS'43945'
p2970
aS'328867'
p2971
aa(lp2972
S'793'
p2973
aS'37'
p2974
aS'345'
p2975
aS'500'
p2976
aS'118'
p2977
aa(lp2978
S'14'
p2979
aS'25'
p2980
aS'26'
p2981
aS'67'
p2982
aS'71'
p2983
aa(lp2984
S'237'
p2985
aS'34'
p2986
aS'25'
p2987
aS'68'
p2988
aS'71'
p2989
aa(lp2990
S'236'
p2991
aS'2640'
p2992
aS'13129'
p2993
aS'3212'
p2994
aS'75'
p2995
aa(lp2996
S'14'
p2997
aS'25'
p2998
aS'26'
p2999
aS'67'
p3000
aS'79'
p3001
aa(lp3002
S'94'
p3003
aS'107'
p3004
aS'25'
p3005
aS'31'
p3006
aS'60'
p3007
aa(lp3008
S'237'
p3009
aS'34'
p3010
aS'25'
p3011
aS'68'
p3012
aS'79'
p3013
aa(lp3014
S'55'
p3015
aS'61'
p3016
aS'65'
p3017
aS'66'
p3018
aS'117'
p3019
aa(lp3020
S'92'
p3021
aS'482'
p3022
aS'14'
p3023
aS'52'
p3024
aS'69'
p3025
aa(lp3026
S'2072'
p3027
aS'553'
p3028
aS'689'
p3029
aS'1866'
p3030
aS'135'
p3031
aa(lp3032
S'119179'
p3033
aS'26570'
p3034
aS'82875'
p3035
aS'11480'
p3036
aS'8407'
p3037
aS'30825'
p3038
aa(lp3039
S'176'
p3040
aS'261'
p3041
aS'107'
p3042
aS'281'
p3043
aS'133'
p3044
aa(lp3045
S'857'
p3046
aS'1530'
p3047
aS'22'
p3048
aS'343'
p3049
aS'542'
p3050
aa(lp3051
S'176'
p3052
aS'261'
p3053
aS'107'
p3054
aS'281'
p3055
aS'137'
p3056
aa(lp3057
S'14'
p3058
aS'25'
p3059
aS'26'
p3060
aS'49'
p3061
aS'52'
p3062
aS'69'
p3063
aa(lp3064
S'34'
p3065
aS'25'
p3066
aS'543'
p3067
aS'1'
aS'137'
p3068
aa(lp3069
S'811'
p3070
aS'2072'
p3071
aS'553'
p3072
aS'365'
p3073
aS'135'
p3074
aa(lp3075
S'137046'
p3076
aS'502336'
p3077
aS'7106'
p3078
aS'15881'
p3079
aS'13'
p3080
aa(lp3081
S'159'
p3082
aS'312'
p3083
aS'125'
p3084
aS'25'
p3085
aS'36'
p3086
aa(lp3087
S'14'
p3088
aS'31'
p3089
aS'541'
p3090
aS'71'
p3091
aS'80'
p3092
aa(lp3093
S'170'
p3094
aS'55'
p3095
aS'60'
p3096
aS'61'
p3097
aS'79'
p3098
aa(lp3099
S'182'
p3100
aS'60'
p3101
aS'64'
p3102
aS'71'
p3103
aS'79'
p3104
aa(lp3105
S'3'
aS'14'
p3106
aS'26'
p3107
aS'37'
p3108
aS'66'
p3109
aa(lp3110
S'170'
p3111
aS'55'
p3112
aS'60'
p3113
aS'61'
p3114
aS'71'
p3115
aa(lp3116
S'451'
p3117
aS'3303'
p3118
aS'1227'
p3119
aS'46441'
p3120
aS'28831'
p3121
aa(lp3122
S'31'
p3123
aS'55'
p3124
aS'64'
p3125
aS'68'
p3126
aS'134'
p3127
aa(lp3128
S'2'
aS'950'
p3129
aS'5'
aS'8'
aS'4'
aa(lp3130
S'854'
p3131
aS'3436'
p3132
aS'785'
p3133
aS'281'
p3134
aS'80'
p3135
aa(lp3136
S'123'
p3137
aS'22'
p3138
aS'2565'
p3139
aS'77'
p3140
aS'718'
p3141
aa(lp3142
S'5266'
p3143
aS'633'
p3144
aS'5645'
p3145
aS'1316'
p3146
aS'735'
p3147
aa(lp3148
S'391'
p3149
aS'52105'
p3150
aS'6376'
p3151
aS'49'
p3152
aS'78'
p3153
aa(lp3154
S'38'
p3155
aS'15023'
p3156
aS'446022'
p3157
aS'368'
p3158
aS'1'
aa(lp3159
S'34'
p3160
aS'337'
p3161
aS'242'
p3162
aS'66'
p3163
aS'67'
p3164
aa(lp3165
S'14'
p3166
aS'23'
p3167
aS'185'
p3168
aS'37'
p3169
aS'66'
p3170
aa(lp3171
S'3'
aS'18944'
p3172
aS'18'
p3173
aS'3255'
p3174
aS'20047'
p3175
aa(lp3176
S'372'
p3177
aS'107'
p3178
aS'2190'
p3179
aS'25'
p3180
aS'31'
p3181
aa(lp3182
S'107'
p3183
aS'60'
p3184
aS'64'
p3185
aS'71'
p3186
aS'79'
p3187
aa(lp3188
S'6'
aS'11'
p3189
aS'8'
aS'39'
p3190
aS'86'
p3191
aa(lp3192
S'396'
p3193
aS'34'
p3194
aS'107'
p3195
aS'25'
p3196
aS'31'
p3197
aa(lp3198
S'34'
p3199
aS'241'
p3200
aS'182'
p3201
aS'57'
p3202
aS'61'
p3203
aa(lp3204
S'8902'
p3205
aS'25617'
p3206
aS'2980'
p3207
aS'9067'
p3208
aS'16379'
p3209
aa(lp3210
S'247'
p3211
aS'204'
p3212
aS'37'
p3213
aS'280'
p3214
aS'1829'
p3215
aa(lp3216
S'34'
p3217
aS'242'
p3218
aS'26'
p3219
aS'67'
p3220
aS'71'
p3221
aa(lp3222
S'124'
p3223
aS'229'
p3224
aS'208'
p3225
aS'72'
p3226
aS'117'
p3227
aa(lp3228
S'34'
p3229
aS'241'
p3230
aS'182'
p3231
aS'57'
p3232
aS'60'
p3233
aa(lp3234
S'14'
p3235
aS'31'
p3236
aS'55'
p3237
aS'56'
p3238
aS'71'
p3239
aa(lp3240
S'90'
p3241
aS'38'
p3242
aS'2'
aS'4'
aS'138'
p3243
aa(lp3244
S'170'
p3245
aS'214'
p3246
aS'335'
p3247
aS'7985'
p3248
aS'2692'
p3249
aa(lp3250
S'19403'
p3251
aS'1434'
p3252
aS'40'
p3253
aS'4385'
p3254
aS'2108'
p3255
aa(lp3256
S'34'
p3257
aS'242'
p3258
aS'26'
p3259
aS'67'
p3260
aS'79'
p3261
aa(lp3262
S'8961'
p3263
aS'243949'
p3264
aS'291'
p3265
aS'5941'
p3266
aS'110'
p3267
aa(lp3268
S'391'
p3269
aS'298'
p3270
aS'784'
p3271
aS'40'
p3272
aS'134'
p3273
aa(lp3274
S'250'
p3275
aS'6'
aS'9134'
p3276
aS'574'
p3277
aS'25119'
p3278
aa(lp3279
S'34'
p3280
aS'241'
p3281
aS'31'
p3282
aS'61'
p3283
aS'71'
p3284
aa(lp3285
S'337'
p3286
aS'10'
p3287
aS'26'
p3288
aS'55'
p3289
aS'80'
p3290
aa(lp3291
S'26'
p3292
aS'285'
p3293
aS'57'
p3294
aS'56'
p3295
aS'87'
p3296
aa(lp3297
S'216'
p3298
aS'6'
aS'223'
p3299
aS'15'
p3300
aS'1'
aa(lp3301
S'31'
p3302
aS'55'
p3303
aS'61'
p3304
aS'69'
p3305
aS'87'
p3306
aa(lp3307
S'34'
p3308
aS'241'
p3309
aS'31'
p3310
aS'61'
p3311
aS'79'
p3312
aa(lp3313
S'34'
p3314
aS'290'
p3315
aS'25'
p3316
aS'31'
p3317
aS'64'
p3318
aa(lp3319
S'34'
p3320
aS'241'
p3321
aS'26'
p3322
aS'67'
p3323
aS'71'
p3324
aa(lp3325
S'6271'
p3326
aS'220'
p3327
aS'22'
p3328
aS'51'
p3329
aS'111'
p3330
aa(lp3331
S'34'
p3332
aS'55'
p3333
aS'64'
p3334
aS'68'
p3335
aS'134'
p3336
aa(lp3337
S'34'
p3338
aS'11'
p3339
aS'8'
aS'67'
p3340
aS'79'
p3341
aa(lp3342
S'34'
p3343
aS'337'
p3344
aS'242'
p3345
aS'64'
p3346
aS'71'
p3347
aa(lp3348
S'306842'
p3349
aS'119179'
p3350
aS'1245'
p3351
aS'6201'
p3352
aS'1753'
p3353
aa(lp3354
S'1152'
p3355
aS'3456'
p3356
aS'106079'
p3357
aS'2003'
p3358
aS'37'
p3359
aa(lp3360
S'34'
p3361
aS'241'
p3362
aS'26'
p3363
aS'67'
p3364
aS'79'
p3365
aa(lp3366
S'1175'
p3367
aS'6'
aS'574'
p3368
aS'25119'
p3369
aS'487'
p3370
aa(lp3371
S'462'
p3372
aS'550'
p3373
aS'1453'
p3374
aS'442'
p3375
aS'723'
p3376
aS'78'
p3377
aa(lp3378
S'34'
p3379
aS'241'
p3380
aS'182'
p3381
aS'184'
p3382
aS'55'
p3383
aa(lp3384
S'100'
p3385
aS'107'
p3386
aS'14'
p3387
aS'55'
p3388
aS'87'
p3389
aa(lp3390
S'159'
p3391
aS'6'
aS'9134'
p3392
aS'574'
p3393
aS'25119'
p3394
aa(lp3395
S'94'
p3396
aS'1629'
p3397
aS'167'
p3398
aS'208'
p3399
aS'3237'
p3400
aa(lp3401
S'2'
aS'249'
p3402
aS'184'
p3403
aS'31'
p3404
aS'57'
p3405
aa(lp3406
S'3932'
p3407
aS'1051'
p3408
aS'585'
p3409
aS'84'
p3410
aS'102839'
p3411
aa(lp3412
S'23754'
p3413
aS'19403'
p3414
aS'1434'
p3415
aS'40'
p3416
aS'4385'
p3417
aa(lp3418
S'34'
p3419
aS'57'
p3420
aS'65'
p3421
aS'68'
p3422
aS'72'
p3423
aa(lp3424
S'10748'
p3425
aS'4061'
p3426
aS'14143'
p3427
aS'8182'
p3428
aS'9378'
p3429
aa(lp3430
S'159'
p3431
aS'241'
p3432
aS'205'
p3433
aS'184'
p3434
aS'55'
p3435
aa(lp3436
S'1549'
p3437
aS'1650'
p3438
aS'1506'
p3439
aS'4560'
p3440
aS'78'
p3441
aa(lp3442
S'94'
p3443
aS'169923'
p3444
aS'263'
p3445
aS'37'
p3446
aS'36'
p3447
aa(lp3448
S'94'
p3449
aS'7740'
p3450
aS'167'
p3451
aS'3237'
p3452
aS'548'
p3453
aa(lp3454
S'258'
p3455
aS'234'
p3456
aS'440'
p3457
aS'3691'
p3458
aS'320'
p3459
aa(lp3460
S'230'
p3461
aS'165'
p3462
aS'25'
p3463
aS'31'
p3464
aS'60'
p3465
aa(lp3466
S'94'
p3467
aS'7740'
p3468
aS'1930'
p3469
aS'3237'
p3470
aS'1396'
p3471
aa(lp3472
S'1363'
p3473
aS'475'
p3474
aS'1692'
p3475
aS'185'
p3476
aS'119'
p3477
aa(lp3478
S'223'
p3479
aS'144'
p3480
aS'40'
p3481
aS'59'
p3482
aS'74'
p3483
aa(lp3484
S'2447'
p3485
aS'3241'
p3486
aS'44'
p3487
aS'83'
p3488
aS'29330'
p3489
aa(lp3490
S'34'
p3491
aS'26'
p3492
aS'69'
p3493
aS'79'
p3494
aS'80'
p3495
aa(lp3496
S'174'
p3497
aS'34'
p3498
aS'17'
p3499
aS'25'
p3500
aS'49'
p3501
aa(lp3502
S'170'
p3503
aS'25'
p3504
aS'67'
p3505
aS'68'
p3506
aS'71'
p3507
aa(lp3508
S'1765'
p3509
aS'1464'
p3510
aS'6337'
p3511
aS'1955'
p3512
aS'14'
p3513
aa(lp3514
S'185'
p3515
aS'56'
p3516
aS'66'
p3517
aS'71'
p3518
aS'80'
p3519
aa(lp3520
S'306842'
p3521
aS'119179'
p3522
aS'1245'
p3523
aS'482919'
p3524
aS'486193'
p3525
aa(lp3526
S'94'
p3527
aS'234'
p3528
aS'34'
p3529
aS'14'
p3530
aS'320'
p3531
aa(lp3532
S'86614'
p3533
aS'31818'
p3534
aS'3732'
p3535
aS'12152'
p3536
aS'119408'
p3537
aS'73865'
p3538
aa(lp3539
S'199'
p3540
aS'437'
p3541
aS'13'
p3542
aS'52'
p3543
aS'8091'
p3544
aa(lp3545
S'103'
p3546
aS'146'
p3547
aS'56'
p3548
aS'60'
p3549
aS'67'
p3550
aa(lp3551
S'95'
p3552
aS'107'
p3553
aS'203'
p3554
aS'66'
p3555
aS'72'
p3556
aa(lp3557
S'94'
p3558
aS'55'
p3559
aS'69'
p3560
aS'72'
p3561
aS'80'
p3562
aa(lp3563
S'157'
p3564
aS'5'
aS'13'
p3565
aS'37'
p3566
aS'49'
p3567
aS'80'
p3568
aa(lp3569
S'90'
p3570
aS'141'
p3571
aS'289'
p3572
aS'49'
p3573
aS'78'
p3574
aa(lp3575
S'6359'
p3576
aS'2236'
p3577
aS'493477'
p3578
aS'25838'
p3579
aS'7931'
p3580
aa(lp3581
S'34'
p3582
aS'241'
p3583
aS'182'
p3584
aS'57'
p3585
aS'65'
p3586
aa(lp3587
S'5'
aS'13'
p3588
aS'7151'
p3589
aS'39'
p3590
aS'327'
p3591
aa(lp3592
S'2301'
p3593
aS'937'
p3594
aS'9733'
p3595
aS'434'
p3596
aS'995'
p3597
aa(lp3598
S'2079'
p3599
aS'19659'
p3600
aS'475'
p3601
aS'3096'
p3602
aS'7117'
p3603
aa(lp3604
S'176'
p3605
aS'706'
p3606
aS'124'
p3607
aS'66'
p3608
aS'117'
p3609
aa(lp3610
S'93'
p3611
aS'472'
p3612
aS'763'
p3613
aS'187'
p3614
aS'49'
p3615
aa(lp3616
S'910'
p3617
aS'20034'
p3618
aS'11554'
p3619
aS'17583'
p3620
aS'2439'
p3621
aa(lp3622
S'95'
p3623
aS'107'
p3624
aS'26'
p3625
aS'56'
p3626
aS'79'
p3627
aa(lp3628
S'170'
p3629
aS'237'
p3630
aS'25'
p3631
aS'31'
p3632
aS'60'
p3633
aa(lp3634
S'90'
p3635
aS'17'
p3636
aS'43'
p3637
aS'58'
p3638
aS'73'
p3639
aS'131'
p3640
aa(lp3641
S'179'
p3642
aS'2'
aS'25'
p3643
aS'8'
aS'4'
aa(lp3644
S'7085'
p3645
aS'326925'
p3646
aS'261640'
p3647
aS'3110'
p3648
aS'108198'
p3649
aS'305047'
p3650
aa(lp3651
S'2'
aS'6'
aS'10'
p3652
aS'24'
p3653
aS'27'
p3654
aa(lp3655
S'31'
p3656
aS'369'
p3657
aS'75'
p3658
aS'71'
p3659
aS'117'
p3660
aa(lp3661
S'2'
aS'6'
aS'10'
p3662
aS'24'
p3663
aS'20'
p3664
aa(lp3665
S'1176'
p3666
aS'59763'
p3667
aS'11435'
p3668
aS'2522'
p3669
aS'36'
p3670
aa(lp3671
S'390'
p3672
aS'13'
p3673
aS'2281'
p3674
aS'8091'
p3675
aS'78'
p3676
aa(lp3677
S'2'
aS'6'
aS'10'
p3678
aS'24'
p3679
aS'29'
p3680
aa(lp3681
S'391'
p3682
aS'52105'
p3683
aS'1038'
p3684
aS'55308'
p3685
aS'49'
p3686
aa(lp3687
S'1761'
p3688
aS'29593'
p3689
aS'33610'
p3690
aS'100'
p3691
aS'78'
p3692
aa(lp3693
S'925'
p3694
aS'1434'
p3695
aS'40'
p3696
aS'4385'
p3697
aS'2108'
p3698
aa(lp3699
S'5266'
p3700
aS'2184'
p3701
aS'16716'
p3702
aS'1316'
p3703
aS'735'
p3704
aa(lp3705
S'95'
p3706
aS'192'
p3707
aS'269'
p3708
aS'37'
p3709
aS'280'
p3710
aa(lp3711
S'94'
p3712
aS'6184'
p3713
aS'783'
p3714
aS'1786'
p3715
aS'84'
p3716
aa(lp3717
S'94'
p3718
aS'6184'
p3719
aS'783'
p3720
aS'1786'
p3721
aS'83'
p3722
aa(lp3723
S'34'
p3724
aS'337'
p3725
aS'242'
p3726
aS'60'
p3727
aS'61'
p3728
aS'71'
p3729
aa(lp3730
S'177'
p3731
aS'460406'
p3732
aS'102'
p3733
aS'20'
p3734
aS'119'
p3735
aa(lp3736
S'92'
p3737
aS'211'
p3738
aS'298'
p3739
aS'3'
aS'224'
p3740
aa(lp3741
S'169923'
p3742
aS'1875'
p3743
aS'17'
p3744
aS'37'
p3745
aS'3789'
p3746
aa(lp3747
S'34'
p3748
aS'242'
p3749
aS'57'
p3750
aS'67'
p3751
aS'79'
p3752
aa(lp3753
S'34'
p3754
aS'107'
p3755
aS'26'
p3756
aS'56'
p3757
aS'79'
p3758
aa(lp3759
S'25'
p3760
aS'26'
p3761
aS'307'
p3762
aS'55'
p3763
aS'84'
p3764
aa(lp3765
S'34'
p3766
aS'337'
p3767
aS'242'
p3768
aS'60'
p3769
aS'61'
p3770
aS'79'
p3771
aa(lp3772
S'690'
p3773
aS'5'
aS'515'
p3774
aS'22'
p3775
aS'542'
p3776
aa(lp3777
S'100'
p3778
aS'107'
p3779
aS'208'
p3780
aS'25'
p3781
aS'117'
p3782
aa(lp3783
S'149'
p3784
aS'31'
p3785
aS'49'
p3786
aS'57'
p3787
aS'66'
p3788
aa(lp3789
S'34'
p3790
aS'242'
p3791
aS'25'
p3792
aS'31'
p3793
aS'64'
p3794
aa(lp3795
S'92'
p3796
aS'211'
p3797
aS'298'
p3798
aS'3'
aS'473'
p3799
aa(lp3800
S'34'
p3801
aS'242'
p3802
aS'25'
p3803
aS'31'
p3804
aS'60'
p3805
aa(lp3806
S'25'
p3807
aS'26'
p3808
aS'31'
p3809
aS'56'
p3810
aS'1'
aa(lp3811
S'94'
p3812
aS'107'
p3813
aS'14'
p3814
aS'37'
p3815
aS'80'
p3816
aa(lp3817
S'31'
p3818
aS'55'
p3819
aS'61'
p3820
aS'65'
p3821
aS'14600'
p3822
aa(lp3823
S'409415'
p3824
aS'1245'
p3825
aS'482919'
p3826
aS'11900'
p3827
aS'11013'
p3828
aa(lp3829
S'95'
p3830
aS'1957'
p3831
aS'13'
p3832
aS'2281'
p3833
aS'8091'
p3834
aa(lp3835
S'25'
p3836
aS'26'
p3837
aS'37'
p3838
aS'56'
p3839
aS'61'
p3840
aa(lp3841
S'10'
p3842
aS'1434'
p3843
aS'40'
p3844
aS'4385'
p3845
aS'2108'
p3846
aa(lp3847
S'452'
p3848
aS'2485'
p3849
aS'62899'
p3850
aS'23233'
p3851
aS'280'
p3852
aa(lp3853
S'25'
p3854
aS'26'
p3855
aS'37'
p3856
aS'61'
p3857
aS'72'
p3858
aa(lp3859
S'8013'
p3860
aS'9201'
p3861
aS'36894'
p3862
aS'101376'
p3863
aS'40132'
p3864
aa(lp3865
S'19403'
p3866
aS'10'
p3867
aS'949'
p3868
aS'11692'
p3869
aS'6914'
p3870
aa(lp3871
S'100'
p3872
aS'11164'
p3873
aS'165'
p3874
aS'184'
p3875
aS'467'
p3876
aa(lp3877
S'37'
p3878
aS'52'
p3879
aS'66'
p3880
aS'71'
p3881
aS'117'
p3882
aa(lp3883
S'409415'
p3884
aS'1753'
p3885
aS'482919'
p3886
aS'11900'
p3887
aS'11013'
p3888
aa(lp3889
S'103'
p3890
aS'107'
p3891
aS'26'
p3892
aS'56'
p3893
aS'79'
p3894
aa(lp3895
S'137046'
p3896
aS'7106'
p3897
aS'1227'
p3898
aS'103635'
p3899
aS'3203'
p3900
aa(lp3901
S'7454'
p3902
aS'1348'
p3903
aS'2236'
p3904
aS'1040'
p3905
aS'7931'
p3906
aa(lp3907
S'25'
p3908
aS'26'
p3909
aS'41'
p3910
aS'134'
p3911
aS'80'
p3912
aa(lp3913
S'255'
p3914
aS'159'
p3915
aS'431'
p3916
aS'4'
aS'87'
p3917
aa(lp3918
S'19119'
p3919
aS'36603'
p3920
aS'5271'
p3921
aS'40620'
p3922
aS'12628'
p3923
aS'25008'
p3924
aa(lp3925
S'34'
p3926
aS'242'
p3927
aS'26'
p3928
aS'37'
p3929
aS'57'
p3930
aa(lp3931
S'8013'
p3932
aS'324106'
p3933
aS'23705'
p3934
aS'485'
p3935
aS'575094'
p3936
aS'494594'
p3937
aa(lp3938
S'6368'
p3939
aS'680'
p3940
aS'371'
p3941
aS'138190'
p3942
aS'2263'
p3943
aa(lp3944
S'93'
p3945
aS'219'
p3946
aS'124'
p3947
aS'289'
p3948
aS'78'
p3949
aa(lp3950
S'169923'
p3951
aS'1875'
p3952
aS'17'
p3953
aS'37'
p3954
aS'66'
p3955
aa(lp3956
S'1462'
p3957
aS'1140'
p3958
aS'37'
p3959
aS'56'
p3960
aS'21069'
p3961
aa(lp3962
S'255'
p3963
aS'107'
p3964
aS'229'
p3965
aS'66'
p3966
aS'117'
p3967
aa(lp3968
S'6819'
p3969
aS'25'
p3970
aS'26'
p3971
aS'31'
p3972
aS'57'
p3973
aa(lp3974
S'312'
p3975
aS'475'
p3976
aS'1692'
p3977
aS'185'
p3978
aS'119'
p3979
aa(lp3980
S'502336'
p3981
aS'7106'
p3982
aS'1227'
p3983
aS'103635'
p3984
aS'3203'
p3985
aa(lp3986
S'13618'
p3987
aS'176562'
p3988
aS'16541'
p3989
aS'107968'
p3990
aS'3824'
p3991
aS'314266'
p3992
aa(lp3993
S'170'
p3994
aS'237'
p3995
aS'25'
p3996
aS'60'
p3997
aS'79'
p3998
aa(lp3999
S'6'
aS'379'
p4000
aS'25'
p4001
aS'2050'
p4002
aS'79'
p4003
aa(lp4004
S'18817'
p4005
aS'2586'
p4006
aS'4186'
p4007
aS'403'
p4008
aS'79295'
p4009
aa(lp4010
S'34'
p4011
aS'125'
p4012
aS'25'
p4013
aS'64'
p4014
aS'87'
p4015
aa(lp4016
S'174'
p4017
aS'2'
aS'10'
p4018
aS'6448'
p4019
aS'49'
p4020
aa(lp4021
S'18234'
p4022
aS'1778'
p4023
aS'49'
p4024
aS'19312'
p4025
aS'713'
p4026
aa(lp4027
S'2'
aS'6'
aS'15'
p4028
aS'17'
p4029
aS'58'
p4030
aa(lp4031
S'3977'
p4032
aS'2280'
p4033
aS'66'
p4034
aS'75'
p4035
aS'117'
p4036
aa(lp4037
S'251'
p4038
aS'151'
p4039
aS'215'
p4040
aS'100'
p4041
aS'14'
p4042
aa(lp4043
S'14'
p4044
aS'57'
p4045
aS'64'
p4046
aS'71'
p4047
aS'79'
p4048
aa(lp4049
S'192'
p4050
aS'269'
p4051
aS'37'
p4052
aS'280'
p4053
aS'49'
p4054
aa(lp4055
S'14'
p4056
aS'206'
p4057
aS'31'
p4058
aS'407'
p4059
aS'71'
p4060
aa(lp4061
S'236'
p4062
aS'14'
p4063
aS'44'
p4064
aS'71'
p4065
aS'79'
p4066
aa(lp4067
S'13111'
p4068
aS'19059'
p4069
aS'451'
p4070
aS'1530'
p4071
aS'20176'
p4072
aa(lp4073
S'8013'
p4074
aS'451'
p4075
aS'9201'
p4076
aS'1530'
p4077
aS'40132'
p4078
aa(lp4079
S'6'
aS'140'
p4080
aS'24'
p4081
aS'49'
p4082
aS'1886'
p4083
aa(lp4084
S'57611'
p4085
aS'14'
p4086
aS'26'
p4087
aS'31'
p4088
aS'10863'
p4089
aa(lp4090
S'170'
p4091
aS'249'
p4092
aS'182'
p4093
aS'184'
p4094
aS'55'
p4095
aa(lp4096
S'14'
p4097
aS'25'
p4098
aS'26'
p4099
aS'322'
p4100
aS'68'
p4101
aa(lp4102
S'151'
p4103
aS'234'
p4104
aS'380'
p4105
aS'100'
p4106
aS'52'
p4107
aa(lp4108
S'177'
p4109
aS'18123'
p4110
aS'806'
p4111
aS'15'
p4112
aS'1600'
p4113
aa(lp4114
S'2618'
p4115
aS'389'
p4116
aS'167'
p4117
aS'289'
p4118
aS'78'
p4119
aa(lp4120
S'502336'
p4121
aS'451'
p4122
aS'1227'
p4123
aS'103635'
p4124
aS'5694'
p4125
aa(lp4126
S'256'
p4127
aS'92'
p4128
aS'215'
p4129
aS'66'
p4130
aS'750'
p4131
aa(lp4132
S'372'
p4133
aS'107'
p4134
aS'2190'
p4135
aS'25'
p4136
aS'2817'
p4137
aa(lp4138
S'14'
p4139
aS'31'
p4140
aS'369'
p4141
aS'71'
p4142
aS'117'
p4143
aa(lp4144
S'729'
p4145
aS'60'
p4146
aS'64'
p4147
aS'71'
p4148
aS'30105'
p4149
aa(lp4150
S'241'
p4151
aS'25'
p4152
aS'56'
p4153
aS'61'
p4154
aS'71'
p4155
aa(lp4156
S'5'
aS'103'
p4157
aS'13'
p4158
aS'1'
aS'83'
p4159
aa(lp4160
S'222'
p4161
aS'149'
p4162
aS'14'
p4163
aS'52'
p4164
aS'69'
p4165
aa(lp4166
S'95'
p4167
aS'107'
p4168
aS'72'
p4169
aS'134'
p4170
aS'80'
p4171
aa(lp4172
S'452'
p4173
aS'23233'
p4174
aS'14'
p4175
aS'284'
p4176
aS'36693'
p4177
aa(lp4178
S'241'
p4179
aS'25'
p4180
aS'56'
p4181
aS'61'
p4182
aS'79'
p4183
aa(lp4184
S'625722'
p4185
aS'119179'
p4186
aS'113589'
p4187
aS'240'
p4188
aS'8407'
p4189
aS'3572'
p4190
aa(lp4191
S'306842'
p4192
aS'119179'
p4193
aS'1245'
p4194
aS'6201'
p4195
aS'11900'
p4196
aa(lp4197
S'137046'
p4198
aS'502336'
p4199
aS'45535'
p4200
aS'1227'
p4201
aS'28831'
p4202
aa(lp4203
S'1051'
p4204
aS'3718'
p4205
aS'585'
p4206
aS'84'
p4207
aS'102839'
p4208
aa(lp4209
S'14'
p4210
aS'369'
p4211
aS'75'
p4212
aS'71'
p4213
aS'117'
p4214
aa(lp4215
S'532'
p4216
aS'825'
p4217
aS'17'
p4218
aS'902'
p4219
aS'530'
p4220
aa(lp4221
S'100'
p4222
aS'247'
p4223
aS'167'
p4224
aS'37'
p4225
aS'1829'
p4226
aa(lp4227
S'103'
p4228
aS'146'
p4229
aS'31'
p4230
aS'56'
p4231
aS'1'
aa(lp4232
S'34'
p4233
aS'249'
p4234
aS'60'
p4235
aS'67'
p4236
aS'71'
p4237
aa(lp4238
S'13618'
p4239
aS'176562'
p4240
aS'16541'
p4241
aS'4699'
p4242
aS'12178'
p4243
aS'9207'
p4244
aa(lp4245
S'5057'
p4246
aS'7973'
p4247
aS'1456'
p4248
aS'52'
p4249
aS'923'
p4250
aa(lp4251
S'1859'
p4252
aS'4'
aS'46443'
p4253
aS'66'
p4254
aS'83'
p4255
aa(lp4256
S'14'
p4257
aS'25'
p4258
aS'26'
p4259
aS'66'
p4260
aS'736'
p4261
aa(lp4262
S'34'
p4263
aS'249'
p4264
aS'60'
p4265
aS'67'
p4266
aS'79'
p4267
aa(lp4268
S'310'
p4269
aS'52'
p4270
aS'1942'
p4271
aS'69'
p4272
aS'5328'
p4273
aa(lp4274
S'34'
p4275
aS'322'
p4276
aS'57'
p4277
aS'67'
p4278
aS'71'
p4279
aa(lp4280
S'372'
p4281
aS'25215'
p4282
aS'26'
p4283
aS'64'
p4284
aS'10863'
p4285
aa(lp4286
S'627'
p4287
aS'204'
p4288
aS'37'
p4289
aS'280'
p4290
aS'1829'
p4291
aa(lp4292
S'5'
aS'14'
p4293
aS'185'
p4294
aS'47'
p4295
aS'71'
p4296
aa(lp4297
S'371'
p4298
aS'6233'
p4299
aS'37255'
p4300
aS'10756'
p4301
aS'650'
p4302
aa(lp4303
S'6'
aS'146'
p4304
aS'10'
p4305
aS'24'
p4306
aS'1886'
p4307
aa(lp4308
S'7106'
p4309
aS'451'
p4310
aS'15881'
p4311
aS'107'
p4312
aS'5694'
p4313
aa(lp4314
S'633'
p4315
aS'61'
p4316
aS'72'
p4317
aS'134'
p4318
aS'87'
p4319
aa(lp4320
S'49792'
p4321
aS'303211'
p4322
aS'13'
p4323
aS'69000'
p4324
aS'108198'
p4325
aS'305047'
p4326
aa(lp4327
S'25'
p4328
aS'26'
p4329
aS'31'
p4330
aS'67'
p4331
aS'3883'
p4332
aa(lp4333
S'1155'
p4334
aS'3718'
p4335
aS'585'
p4336
aS'84'
p4337
aS'102839'
p4338
aa(lp4339
S'25'
p4340
aS'369'
p4341
aS'75'
p4342
aS'71'
p4343
aS'117'
p4344
aa(lp4345
S'251'
p4346
aS'125'
p4347
aS'26'
p4348
aS'322'
p4349
aS'68'
p4350
aa(lp4351
S'3'
aS'769'
p4352
aS'3403'
p4353
aS'89'
p4354
aS'118'
p4355
aa(lp4356
S'95'
p4357
aS'25'
p4358
aS'31'
p4359
aS'407'
p4360
aS'71'
p4361
aa(lp4362
S'4768'
p4363
aS'409415'
p4364
aS'858'
p4365
aS'1014'
p4366
aS'9095'
p4367
aa(lp4368
S'292'
p4369
aS'11105'
p4370
aS'22948'
p4371
aS'46'
p4372
aS'671'
p4373
aa(lp4374
S'94'
p4375
aS'254'
p4376
aS'14794'
p4377
aS'14'
p4378
aS'69'
p4379
aa(lp4380
S'26'
p4381
aS'184'
p4382
aS'31'
p4383
aS'60'
p4384
aS'71'
p4385
aa(lp4386
S'2'
aS'6'
aS'628'
p4387
aS'17'
p4388
aS'74'
p4389
aa(lp4390
S'34'
p4391
aS'241'
p4392
aS'182'
p4393
aS'57'
p4394
aS'67'
p4395
aa(lp4396
S'14'
p4397
aS'31'
p4398
aS'369'
p4399
aS'72'
p4400
aS'71'
p4401
aa(lp4402
S'8013'
p4403
aS'14563'
p4404
aS'36894'
p4405
aS'101376'
p4406
aS'40132'
p4407
aa(lp4408
S'34'
p4409
aS'241'
p4410
aS'182'
p4411
aS'57'
p4412
aS'68'
p4413
aa(lp4414
S'690'
p4415
aS'5'
aS'515'
p4416
aS'22'
p4417
aS'1067'
p4418
aa(lp4419
S'26'
p4420
aS'184'
p4421
aS'31'
p4422
aS'60'
p4423
aS'79'
p4424
aa(lp4425
S'858'
p4426
aS'1245'
p4427
aS'482919'
p4428
aS'11900'
p4429
aS'11013'
p4430
aa(lp4431
S'100'
p4432
aS'107'
p4433
aS'60'
p4434
aS'68'
p4435
aS'87'
p4436
aa(lp4437
S'178'
p4438
aS'52'
p4439
aS'66'
p4440
aS'71'
p4441
aS'117'
p4442
aa(lp4443
S'2764'
p4444
aS'318'
p4445
aS'50970'
p4446
aS'10443'
p4447
aS'6481'
p4448
aa(lp4449
S'137046'
p4450
aS'502336'
p4451
aS'7106'
p4452
aS'107'
p4453
aS'125316'
p4454
aa(lp4455
S'99'
p4456
aS'159'
p4457
aS'166'
p4458
aS'148'
p4459
aS'19129'
p4460
aa(lp4461
S'95'
p4462
aS'107'
p4463
aS'37'
p4464
aS'72'
p4465
aS'117'
p4466
aa(lp4467
S'38'
p4468
aS'2'
aS'8'
aS'39'
p4469
aS'86'
p4470
aa(lp4471
S'179'
p4472
aS'211'
p4473
aS'5013'
p4474
aS'100'
p4475
aS'37'
p4476
aa(lp4477
S'1331'
p4478
aS'905'
p4479
aS'21'
p4480
aS'8'
aS'4'
aa(lp4481
S'698350'
p4482
aS'11795'
p4483
aS'583'
p4484
aS'18285'
p4485
aS'4715'
p4486
aa(lp4487
S'170'
p4488
aS'249'
p4489
aS'182'
p4490
aS'31'
p4491
aS'57'
p4492
aa(lp4493
S'92'
p4494
aS'34'
p4495
aS'339'
p4496
aS'107'
p4497
aS'25'
p4498
aa(lp4499
S'25'
p4500
aS'322'
p4501
aS'57'
p4502
aS'67'
p4503
aS'71'
p4504
aa(lp4505
S'14'
p4506
aS'31'
p4507
aS'55'
p4508
aS'71'
p4509
aS'79'
p4510
aa(lp4511
S'2338'
p4512
aS'4054'
p4513
aS'45935'
p4514
aS'49'
p4515
aS'3220'
p4516
aa(lp4517
S'14'
p4518
aS'25'
p4519
aS'56'
p4520
aS'52'
p4521
aS'83'
p4522
aa(lp4523
S'462'
p4524
aS'2216'
p4525
aS'102'
p4526
aS'19'
p4527
aS'49'
p4528
aa(lp4529
S'34'
p4530
aS'242'
p4531
aS'25'
p4532
aS'47'
p4533
aS'1845'
p4534
aa(lp4535
S'6218'
p4536
aS'4054'
p4537
aS'45935'
p4538
aS'49'
p4539
aS'3220'
p4540
aa(lp4541
S'103'
p4542
aS'146'
p4543
aS'18'
p4544
aS'25'
p4545
aS'1'
aa(lp4546
S'391'
p4547
aS'371'
p4548
aS'18454'
p4549
aS'65345'
p4550
aS'3725'
p4551
aa(lp4552
S'306842'
p4553
aS'119179'
p4554
aS'64372'
p4555
aS'407994'
p4556
aS'9095'
p4557
aa(lp4558
S'34'
p4559
aS'241'
p4560
aS'182'
p4561
aS'184'
p4562
aS'188'
p4563
aa(lp4564
S'39368'
p4565
aS'6892'
p4566
aS'9300'
p4567
aS'3098'
p4568
aS'648'
p4569
aa(lp4570
S'8013'
p4571
aS'19059'
p4572
aS'9201'
p4573
aS'101376'
p4574
aS'20176'
p4575
aa(lp4576
S'200'
p4577
aS'31'
p4578
aS'49'
p4579
aS'55'
p4580
aS'84'
p4581
aa(lp4582
S'312'
p4583
aS'1019'
p4584
aS'52'
p4585
aS'66'
p4586
aS'110'
p4587
aa(lp4588
S'34'
p4589
aS'25'
p4590
aS'55'
p4591
aS'56'
p4592
aS'1'
aa(lp4593
S'45535'
p4594
aS'15881'
p4595
aS'3203'
p4596
aS'5694'
p4597
aS'28831'
p4598
aa(lp4599
S'234'
p4600
aS'31'
p4601
aS'37'
p4602
aS'56'
p4603
aS'83'
p4604
aa(lp4605
S'170'
p4606
aS'249'
p4607
aS'182'
p4608
aS'31'
p4609
aS'56'
p4610
aa(lp4611
S'275'
p4612
aS'986'
p4613
aS'60'
p4614
aS'68'
p4615
aS'133'
p4616
aa(lp4617
S'4454'
p4618
aS'3228'
p4619
aS'3548'
p4620
aS'488'
p4621
aS'83'
p4622
aa(lp4623
S'1155'
p4624
aS'5310'
p4625
aS'828'
p4626
aS'585'
p4627
aS'9437'
p4628
aa(lp4629
S'34'
p4630
aS'125'
p4631
aS'26'
p4632
aS'322'
p4633
aS'61'
p4634
aa(lp4635
S'8191'
p4636
aS'12145'
p4637
aS'14'
p4638
aS'846'
p4639
aS'2055'
p4640
aa(lp4641
S'5016'
p4642
aS'1799'
p4643
aS'1284'
p4644
aS'347'
p4645
aS'4345'
p4646
aa(lp4647
S'4768'
p4648
aS'119179'
p4649
aS'6201'
p4650
aS'1753'
p4651
aS'3824'
p4652
aa(lp4653
S'19059'
p4654
aS'9201'
p4655
aS'36894'
p4656
aS'3634'
p4657
aS'101376'
p4658
aa(lp4659
S'14'
p4660
aS'25'
p4661
aS'26'
p4662
aS'66'
p4663
aS'67'
p4664
aa(lp4665
S'103'
p4666
aS'146'
p4667
aS'140'
p4668
aS'24'
p4669
aS'28'
p4670
aa(lp4671
S'176'
p4672
aS'255'
p4673
aS'312'
p4674
aS'226'
p4675
aS'49'
p4676
aa(lp4677
S'10358'
p4678
aS'123746'
p4679
aS'1266'
p4680
aS'234471'
p4681
aS'194355'
p4682
aa(lp4683
S'176'
p4684
aS'694'
p4685
aS'100'
p4686
aS'1473'
p4687
aS'75'
p4688
aa(lp4689
S'14'
p4690
aS'31'
p4691
aS'369'
p4692
aS'72'
p4693
aS'117'
p4694
aa(lp4695
S'34'
p4696
aS'25'
p4697
aS'66'
p4698
aS'71'
p4699
aS'80'
p4700
aa(lp4701
S'8013'
p4702
aS'451'
p4703
aS'9201'
p4704
aS'1530'
p4705
aS'15881'
p4706
aa(lp4707
S'451'
p4708
aS'45535'
p4709
aS'1227'
p4710
aS'103635'
p4711
aS'46441'
p4712
aa(lp4713
S'34'
p4714
aS'416'
p4715
aS'1014'
p4716
aS'1352'
p4717
aS'56'
p4718
aa(lp4719
S'94'
p4720
aS'4199'
p4721
aS'3046'
p4722
aS'1931'
p4723
aS'7578'
p4724
aa(lp4725
S'371'
p4726
aS'6233'
p4727
aS'37873'
p4728
aS'10443'
p4729
aS'6481'
p4730
aa(lp4731
S'5983'
p4732
aS'2171'
p4733
aS'379'
p4734
aS'281'
p4735
aS'73'
p4736
aa(lp4737
S'5'
aS'13'
p4738
aS'7151'
p4739
aS'39'
p4740
aS'45'
p4741
aa(lp4742
S'8013'
p4743
aS'451'
p4744
aS'9201'
p4745
aS'59807'
p4746
aS'18512'
p4747
aa(lp4748
S'194'
p4749
aS'20438'
p4750
aS'349'
p4751
aS'540'
p4752
aS'68'
p4753
aa(lp4754
S'90'
p4755
aS'391'
p4756
aS'910'
p4757
aS'371'
p4758
aS'677'
p4759
aa(lp4760
S'103'
p4761
aS'146'
p4762
aS'140'
p4763
aS'24'
p4764
aS'679'
p4765
aa(lp4766
S'1583'
p4767
aS'4921'
p4768
aS'3357'
p4769
aS'3364'
p4770
aS'18721'
p4771
aa(lp4772
S'6'
aS'3213'
p4773
aS'140'
p4774
aS'185'
p4775
aS'2623'
p4776
aa(lp4777
S'179'
p4778
aS'5013'
p4779
aS'1032'
p4780
aS'100'
p4781
aS'204'
p4782
aa(lp4783
S'172'
p4784
aS'25'
p4785
aS'26'
p4786
aS'182'
p4787
aS'31'
p4788
aa(lp4789
S'255'
p4790
aS'159'
p4791
aS'431'
p4792
aS'8'
aS'4'
aa(lp4793
S'19403'
p4794
aS'10'
p4795
aS'1434'
p4796
aS'4385'
p4797
aS'11692'
p4798
aa(lp4799
S'95'
p4800
aS'206'
p4801
aS'31'
p4802
aS'407'
p4803
aS'71'
p4804
aa(lp4805
S'26'
p4806
aS'182'
p4807
aS'188'
p4808
aS'31'
p4809
aS'57'
p4810
aa(lp4811
S'1156'
p4812
aS'34'
p4813
aS'887'
p4814
aS'267'
p4815
aS'83'
p4816
aa(lp4817
S'216'
p4818
aS'144'
p4819
aS'143'
p4820
aS'59'
p4821
aS'74'
p4822
aa(lp4823
S'44240'
p4824
aS'49792'
p4825
aS'261640'
p4826
aS'3110'
p4827
aS'108198'
p4828
aS'305047'
p4829
aa(lp4830
S'7454'
p4831
aS'1348'
p4832
aS'6359'
p4833
aS'606'
p4834
aS'4697'
p4835
aa(lp4836
S'170'
p4837
aS'165'
p4838
aS'182'
p4839
aS'56'
p4840
aS'71'
p4841
aa(lp4842
S'5803'
p4843
aS'65422'
p4844
aS'3136'
p4845
aS'4849'
p4846
aS'92900'
p4847
aa(lp4848
S'198'
p4849
aS'107'
p4850
aS'146'
p4851
aS'8'
aS'4'
aa(lp4852
S'935'
p4853
aS'1422'
p4854
aS'306'
p4855
aS'566'
p4856
aS'43'
p4857
aa(lp4858
S'92'
p4859
aS'211'
p4860
aS'298'
p4861
aS'224'
p4862
aS'321'
p4863
aa(lp4864
S'14'
p4865
aS'25'
p4866
aS'26'
p4867
aS'56'
p4868
aS'79'
p4869
aa(lp4870
S'6'
aS'379'
p4871
aS'25'
p4872
aS'2050'
p4873
aS'363'
p4874
aa(lp4875
S'31'
p4876
aS'55'
p4877
aS'60'
p4878
aS'64'
p4879
aS'134'
p4880
aa(lp4881
S'14'
p4882
aS'25'
p4883
aS'26'
p4884
aS'69'
p4885
aS'110'
p4886
aa(lp4887
S'575'
p4888
aS'625722'
p4889
aS'24357'
p4890
aS'113589'
p4891
aS'26570'
p4892
aS'11480'
p4893
aa(lp4894
S'211'
p4895
aS'247'
p4896
aS'785'
p4897
aS'37'
p4898
aS'280'
p4899
aa(lp4900
S'4768'
p4901
aS'409415'
p4902
aS'407994'
p4903
aS'482919'
p4904
aS'9095'
p4905
aa(lp4906
S'167'
p4907
aS'369'
p4908
aS'75'
p4909
aS'71'
p4910
aS'117'
p4911
aa(lp4912
S'37982'
p4913
aS'413'
p4914
aS'767'
p4915
aS'9392'
p4916
aS'1'
aa(lp4917
S'256'
p4918
aS'572'
p4919
aS'13'
p4920
aS'1598'
p4921
aS'1117'
p4922
aa(lp4923
S'394'
p4924
aS'2586'
p4925
aS'4186'
p4926
aS'403'
p4927
aS'4018'
p4928
aa(lp4929
S'4768'
p4930
aS'1245'
p4931
aS'6201'
p4932
aS'1753'
p4933
aS'3824'
p4934
aa(lp4935
S'502336'
p4936
aS'7106'
p4937
aS'1227'
p4938
aS'103635'
p4939
aS'5694'
p4940
aa(lp4941
S'395'
p4942
aS'3112'
p4943
aS'125'
p4944
aS'474'
p4945
aS'285'
p4946
aa(lp4947
S'57611'
p4948
aS'14'
p4949
aS'26'
p4950
aS'64'
p4951
aS'10863'
p4952
aa(lp4953
S'2188'
p4954
aS'535'
p4955
aS'243'
p4956
aS'203'
p4957
aS'83'
p4958
aa(lp4959
S'34'
p4960
aS'337'
p4961
aS'242'
p4962
aS'65'
p4963
aS'80'
p4964
aa(lp4965
S'290'
p4966
aS'14'
p4967
aS'26'
p4968
aS'37'
p4969
aS'66'
p4970
aa(lp4971
S'31744'
p4972
aS'914'
p4973
aS'4186'
p4974
aS'24609'
p4975
aS'2125'
p4976
aa(lp4977
S'34'
p4978
aS'957'
p4979
aS'448'
p4980
aS'1'
aS'137'
p4981
aa(lp4982
S'437'
p4983
aS'602'
p4984
aS'2281'
p4985
aS'52'
p4986
aS'69'
p4987
aa(lp4988
S'625722'
p4989
aS'119179'
p4990
aS'113589'
p4991
aS'11480'
p4992
aS'8407'
p4993
aS'30825'
p4994
aa(lp4995
S'90'
p4996
aS'391'
p4997
aS'910'
p4998
aS'371'
p4999
aS'1125'
p5000
aa(lp5001
S'312'
p5002
aS'475'
p5003
aS'103'
p5004
aS'1284'
p5005
aS'66'
p5006
aa(lp5007
S'451'
p5008
aS'9201'
p5009
aS'87891'
p5010
aS'59807'
p5011
aS'40132'
p5012
aa(lp5013
S'57611'
p5014
aS'14'
p5015
aS'25'
p5016
aS'31'
p5017
aS'64'
p5018
aa(lp5019
S'93'
p5020
aS'219'
p5021
aS'124'
p5022
aS'289'
p5023
aS'49'
p5024
aa(lp5025
S'3392'
p5026
aS'2635'
p5027
aS'269'
p5028
aS'106079'
p5029
aS'55757'
p5030
aa(lp5031
S'31'
p5032
aS'55'
p5033
aS'61'
p5034
aS'69'
p5035
aS'117'
p5036
aa(lp5037
S'34'
p5038
aS'241'
p5039
aS'182'
p5040
aS'188'
p5041
aS'67'
p5042
aa(lp5043
S'235'
p5044
aS'6'
aS'262'
p5045
aS'24'
p5046
aS'20'
p5047
aa(lp5048
S'94'
p5049
aS'7'
aS'37'
p5050
aS'3789'
p5051
aS'66'
p5052
aa(lp5053
S'4768'
p5054
aS'1753'
p5055
aS'3824'
p5056
aS'11900'
p5057
aS'11013'
p5058
aa(lp5059
S'660'
p5060
aS'25'
p5061
aS'26'
p5062
aS'68'
p5063
aS'71'
p5064
aa(lp5065
S'572'
p5066
aS'784'
p5067
aS'1598'
p5068
aS'1117'
p5069
aS'87'
p5070
aa(lp5071
S'103'
p5072
aS'146'
p5073
aS'18'
p5074
aS'1'
aS'83'
p5075
aa(lp5076
S'169923'
p5077
aS'7'
aS'1875'
p5078
aS'124'
p5079
aS'3789'
p5080
aa(lp5081
S'306842'
p5082
aS'119179'
p5083
aS'1245'
p5084
aS'246580'
p5085
aS'11013'
p5086
aa(lp5087
S'19059'
p5088
aS'451'
p5089
aS'36894'
p5090
aS'101376'
p5091
aS'20176'
p5092
aa(lp5093
S'22542'
p5094
aS'36'
p5095
aS'575094'
p5096
aS'47529'
p5097
aS'29620'
p5098
aS'397613'
p5099
aa(lp5100
S'93'
p5101
aS'167'
p5102
aS'26'
p5103
aS'55'
p5104
aS'87'
p5105
aa(lp5106
S'273'
p5107
aS'6'
aS'34'
p5108
aS'1984'
p5109
aS'71'
p5110
aa(lp5111
S'251'
p5112
aS'125'
p5113
aS'26'
p5114
aS'322'
p5115
aS'60'
p5116
aa(lp5117
S'94'
p5118
aS'56'
p5119
aS'65'
p5120
aS'79'
p5121
aS'80'
p5122
aa(lp5123
S'2'
aS'34'
p5124
aS'165'
p5125
aS'184'
p5126
aS'4'
aa(lp5127
S'137046'
p5128
aS'502336'
p5129
aS'7106'
p5130
aS'1227'
p5131
aS'103635'
p5132
aa(lp5133
S'151'
p5134
aS'26'
p5135
aS'37'
p5136
aS'56'
p5137
aS'61'
p5138
aa(lp5139
S'248'
p5140
aS'268'
p5141
aS'805'
p5142
aS'6565'
p5143
aS'3334'
p5144
aa(lp5145
S'103'
p5146
aS'146'
p5147
aS'140'
p5148
aS'28'
p5149
aS'41'
p5150
aa(lp5151
S'34'
p5152
aS'8'
aS'31'
p5153
aS'60'
p5154
aS'71'
p5155
aa(lp5156
S'125'
p5157
aS'379'
p5158
aS'26'
p5159
aS'31'
p5160
aS'68'
p5161
aa(lp5162
S'2'
aS'950'
p5163
aS'4'
aS'80'
p5164
aS'84'
p5165
aa(lp5166
S'103'
p5167
aS'146'
p5168
aS'140'
p5169
aS'28'
p5170
aS'49'
p5171
aa(lp5172
S'159'
p5173
aS'26'
p5174
aS'31'
p5175
aS'60'
p5176
aS'79'
p5177
aa(lp5178
S'137046'
p5179
aS'502336'
p5180
aS'7106'
p5181
aS'103635'
p5182
aS'5694'
p5183
aa(lp5184
S'14'
p5185
aS'31'
p5186
aS'55'
p5187
aS'60'
p5188
aS'80'
p5189
aa(lp5190
S'14175'
p5191
aS'326925'
p5192
aS'261640'
p5193
aS'3110'
p5194
aS'108198'
p5195
aS'305047'
p5196
aa(lp5197
S'251'
p5198
aS'14'
p5199
aS'26'
p5200
aS'66'
p5201
aS'72'
p5202
aa(lp5203
S'392818'
p5204
aS'19059'
p5205
aS'14563'
p5206
aS'87891'
p5207
aS'3634'
p5208
aa(lp5209
S'34'
p5210
aS'285'
p5211
aS'57'
p5212
aS'67'
p5213
aS'79'
p5214
aa(lp5215
S'1347'
p5216
aS'264'
p5217
aS'27198'
p5218
aS'129923'
p5219
aS'87'
p5220
aa(lp5221
S'95'
p5222
aS'219'
p5223
aS'167'
p5224
aS'141'
p5225
aS'49'
p5226
aa(lp5227
S'241'
p5228
aS'25'
p5229
aS'55'
p5230
aS'71'
p5231
aS'79'
p5232
aa(lp5233
S'34'
p5234
aS'249'
p5235
aS'184'
p5236
aS'8'
aS'60'
p5237
aa(lp5238
S'95'
p5239
aS'92'
p5240
aS'107'
p5241
aS'25'
p5242
aS'37'
p5243
aa(lp5244
S'392818'
p5245
aS'19059'
p5246
aS'451'
p5247
aS'1530'
p5248
aS'20176'
p5249
aa(lp5250
S'93'
p5251
aS'219'
p5252
aS'124'
p5253
aS'49'
p5254
aS'78'
p5255
aa(lp5256
S'95'
p5257
aS'107'
p5258
aS'148'
p5259
aS'66'
p5260
aS'72'
p5261
aa(lp5262
S'95'
p5263
aS'92'
p5264
aS'107'
p5265
aS'25'
p5266
aS'31'
p5267
aa(lp5268
S'249'
p5269
aS'165'
p5270
aS'25'
p5271
aS'55'
p5272
aS'71'
p5273
aa(lp5274
S'25'
p5275
aS'26'
p5276
aS'31'
p5277
aS'60'
p5278
aS'72'
p5279
aa(lp5280
S'31'
p5281
aS'55'
p5282
aS'61'
p5283
aS'65'
p5284
aS'68'
p5285
aS'115'
p5286
aa(lp5287
S'7'
aS'489'
p5288
aS'36'
p5289
aS'45'
p5290
aS'655'
p5291
aa(lp5292
S'34'
p5293
aS'226'
p5294
aS'31'
p5295
aS'60'
p5296
aS'71'
p5297
aa(lp5298
S'44200'
p5299
aS'1190'
p5300
aS'2479'
p5301
aS'8146'
p5302
aS'111'
p5303
aa(lp5304
S'249'
p5305
aS'165'
p5306
aS'25'
p5307
aS'55'
p5308
aS'79'
p5309
aa(lp5310
S'34'
p5311
aS'107'
p5312
aS'17'
p5313
aS'25'
p5314
aS'80'
p5315
aa(lp5316
S'237'
p5317
aS'34'
p5318
aS'182'
p5319
aS'57'
p5320
aS'56'
p5321
aa(lp5322
S'19059'
p5323
aS'451'
p5324
aS'36894'
p5325
aS'101376'
p5326
aS'40132'
p5327
aa(lp5328
S'211'
p5329
aS'5013'
p5330
aS'1032'
p5331
aS'204'
p5332
aS'37'
p5333
aa(lp5334
S'23651'
p5335
aS'4454'
p5336
aS'3548'
p5337
aS'146'
p5338
aS'488'
p5339
aa(lp5340
S'380'
p5341
aS'1795'
p5342
aS'100'
p5343
aS'167'
p5344
aS'320'
p5345
aa(lp5346
S'5247'
p5347
aS'119179'
p5348
aS'113589'
p5349
aS'11480'
p5350
aS'8407'
p5351
aS'30825'
p5352
aa(lp5353
S'25'
p5354
aS'26'
p5355
aS'37'
p5356
aS'56'
p5357
aS'72'
p5358
aa(lp5359
S'8013'
p5360
aS'392818'
p5361
aS'9201'
p5362
aS'101376'
p5363
aS'20176'
p5364
aa(lp5365
S'94'
p5366
aS'1629'
p5367
aS'167'
p5368
aS'208'
p5369
aS'2123'
p5370
aa(lp5371
S'94'
p5372
aS'7740'
p5373
aS'1629'
p5374
aS'208'
p5375
aS'429'
p5376
aa(lp5377
S'159'
p5378
aS'26'
p5379
aS'31'
p5380
aS'60'
p5381
aS'71'
p5382
aa(lp5383
S'68174'
p5384
aS'24463'
p5385
aS'101'
p5386
aS'3656'
p5387
aS'329'
p5388
aa(lp5389
S'5314'
p5390
aS'107'
p5391
aS'51'
p5392
aS'1504'
p5393
aS'111'
p5394
aa(lp5395
S'100'
p5396
aS'188'
p5397
aS'60'
p5398
aS'61'
p5399
aS'71'
p5400
aa(lp5401
S'94549'
p5402
aS'18743'
p5403
aS'297'
p5404
aS'14080'
p5405
aS'53533'
p5406
aa(lp5407
S'2'
aS'7'
aS'245'
p5408
aS'140'
p5409
aS'25'
p5410
aa(lp5411
S'255'
p5412
aS'682'
p5413
aS'406'
p5414
aS'66'
p5415
aS'117'
p5416
aa(lp5417
S'94'
p5418
aS'55'
p5419
aS'69'
p5420
aS'79'
p5421
aS'80'
p5422
aa(lp5423
S'100'
p5424
aS'188'
p5425
aS'60'
p5426
aS'61'
p5427
aS'79'
p5428
aa(lp5429
S'146'
p5430
aS'55'
p5431
aS'61'
p5432
aS'64'
p5433
aS'84'
p5434
aa(lp5435
S'34'
p5436
aS'26'
p5437
aS'8320'
p5438
aS'31'
p5439
aS'610'
p5440
aa(lp5441
S'26'
p5442
aS'22'
p5443
aS'55'
p5444
aS'64'
p5445
aS'65'
p5446
aa(lp5447
S'858'
p5448
aS'1753'
p5449
aS'482919'
p5450
aS'11900'
p5451
aS'11013'
p5452
aa(lp5453
S'145'
p5454
aS'460406'
p5455
aS'22'
p5456
aS'1'
aS'612'
p5457
aa(lp5458
S'391'
p5459
aS'298'
p5460
aS'784'
p5461
aS'23403'
p5462
aS'40'
p5463
aa(lp5464
S'34'
p5465
aS'107'
p5466
aS'17'
p5467
aS'25'
p5468
aS'37'
p5469
aa(lp5470
S'6'
aS'379'
p5471
aS'25'
p5472
aS'2050'
p5473
aS'2009'
p5474
aa(lp5475
S'34'
p5476
aS'107'
p5477
aS'17'
p5478
aS'25'
p5479
aS'31'
p5480
aa(lp5481
S'34'
p5482
aS'241'
p5483
aS'25'
p5484
aS'31'
p5485
aS'64'
p5486
aa(lp5487
S'8013'
p5488
aS'14563'
p5489
aS'36894'
p5490
aS'1530'
p5491
aS'34818'
p5492
aa(lp5493
S'234'
p5494
aS'18234'
p5495
aS'509'
p5496
aS'19312'
p5497
aS'713'
p5498
aa(lp5499
S'103'
p5500
aS'11'
p5501
aS'6460'
p5502
aS'4'
aS'74'
p5503
aa(lp5504
S'37'
p5505
aS'55'
p5506
aS'69'
p5507
aS'79'
p5508
aS'80'
p5509
aa(lp5510
S'230'
p5511
aS'165'
p5512
aS'25'
p5513
aS'55'
p5514
aS'71'
p5515
aa(lp5516
S'34'
p5517
aS'249'
p5518
aS'56'
p5519
aS'60'
p5520
aS'67'
p5521
aa(lp5522
S'15816'
p5523
aS'34'
p5524
aS'57'
p5525
aS'67'
p5526
aS'79'
p5527
aa(lp5528
S'11243'
p5529
aS'583'
p5530
aS'52'
p5531
aS'15034'
p5532
aS'5233'
p5533
aa(lp5534
S'34'
p5535
aS'242'
p5536
aS'443'
p5537
aS'65'
p5538
aS'1845'
p5539
aa(lp5540
S'107'
p5541
aS'13'
p5542
aS'146'
p5543
aS'1'
aS'83'
p5544
aa(lp5545
S'19403'
p5546
aS'10'
p5547
aS'1434'
p5548
aS'4385'
p5549
aS'6914'
p5550
aa(lp5551
S'223'
p5552
aS'144'
p5553
aS'40'
p5554
aS'59'
p5555
aS'1'
aa(lp5556
S'231'
p5557
aS'34'
p5558
aS'443'
p5559
aS'65'
p5560
aS'1845'
p5561
aa(lp5562
S'254'
p5563
aS'227'
p5564
aS'10'
p5565
aS'37'
p5566
aS'560'
p5567
aa(lp5568
S'34'
p5569
aS'337'
p5570
aS'242'
p5571
aS'64'
p5572
aS'84'
p5573
aa(lp5574
S'633'
p5575
aS'169'
p5576
aS'61'
p5577
aS'3168'
p5578
aS'731'
p5579
aa(lp5580
S'34'
p5581
aS'184'
p5582
aS'31'
p5583
aS'67'
p5584
aS'71'
p5585
aa(lp5586
S'26'
p5587
aS'22'
p5588
aS'57'
p5589
aS'67'
p5590
aS'71'
p5591
aa(lp5592
S'93'
p5593
aS'391'
p5594
aS'1340'
p5595
aS'5974'
p5596
aS'41'
p5597
aa(lp5598
S'93'
p5599
aS'2064'
p5600
aS'4443'
p5601
aS'66'
p5602
aS'134'
p5603
aa(lp5604
S'52924'
p5605
aS'1376'
p5606
aS'68461'
p5607
aS'3297'
p5608
aS'117'
p5609
aa(lp5610
S'137046'
p5611
aS'7106'
p5612
aS'3203'
p5613
aS'5694'
p5614
aS'28831'
p5615
aa(lp5616
S'103'
p5617
aS'146'
p5618
aS'140'
p5619
aS'28'
p5620
aS'52'
p5621
aa(lp5622
S'18094'
p5623
aS'13618'
p5624
aS'26823'
p5625
aS'2750'
p5626
aS'12178'
p5627
aS'9207'
p5628
aa(lp5629
S'92'
p5630
aS'310'
p5631
aS'69'
p5632
aS'87'
p5633
aS'319'
p5634
aa(lp5635
S'312'
p5636
aS'475'
p5637
aS'103'
p5638
aS'1284'
p5639
aS'185'
p5640
aa(lp5641
S'215'
p5642
aS'229'
p5643
aS'208'
p5644
aS'37'
p5645
aS'66'
p5646
aa(lp5647
S'92'
p5648
aS'6'
aS'140'
p5649
aS'24'
p5650
aS'26'
p5651
aa(lp5652
S'92'
p5653
aS'6'
aS'140'
p5654
aS'24'
p5655
aS'20'
p5656
aa(lp5657
S'793'
p5658
aS'14'
p5659
aS'345'
p5660
aS'500'
p5661
aS'118'
p5662
aa(lp5663
S'172'
p5664
aS'25'
p5665
aS'26'
p5666
aS'182'
p5667
aS'37'
p5668
aa(lp5669
S'69910'
p5670
aS'31818'
p5671
aS'1070'
p5672
aS'19232'
p5673
aS'138274'
p5674
aS'4688'
p5675
aa(lp5676
S'157'
p5677
aS'1910'
p5678
aS'31103'
p5679
aS'995'
p5680
aS'110'
p5681
aa(lp5682
S'1032'
p5683
aS'204'
p5684
aS'37'
p5685
aS'280'
p5686
aS'1829'
p5687
aa(lp5688
S'7106'
p5689
aS'451'
p5690
aS'103635'
p5691
aS'32626'
p5692
aS'5694'
p5693
aa(lp5694
S'252'
p5695
aS'2'
aS'7'
aS'17'
p5696
aS'89'
p5697
aa(lp5698
S'137046'
p5699
aS'502336'
p5700
aS'45535'
p5701
aS'32626'
p5702
aS'5694'
p5703
aa(lp5704
S'34'
p5705
aS'25'
p5706
aS'37'
p5707
aS'64'
p5708
aS'80'
p5709
aa(lp5710
S'230'
p5711
aS'165'
p5712
aS'25'
p5713
aS'31'
p5714
aS'64'
p5715
aa(lp5716
S'14'
p5717
aS'25'
p5718
aS'26'
p5719
aS'369'
p5720
aS'117'
p5721
aa(lp5722
S'2077'
p5723
aS'292'
p5724
aS'12358'
p5725
aS'22948'
p5726
aS'46'
p5727
aa(lp5728
S'10880'
p5729
aS'178'
p5730
aS'10462'
p5731
aS'31608'
p5732
aS'1072'
p5733
aa(lp5734
S'8013'
p5735
aS'451'
p5736
aS'9201'
p5737
aS'14563'
p5738
aS'40132'
p5739
aa(lp5740
S'3'
aS'18'
p5741
aS'185'
p5742
aS'37'
p5743
aS'66'
p5744
aa(lp5745
S'94'
p5746
aS'174'
p5747
aS'14'
p5748
aS'37'
p5749
aS'80'
p5750
aa(lp5751
S'34'
p5752
aS'290'
p5753
aS'706'
p5754
aS'72'
p5755
aS'71'
p5756
aa(lp5757
S'34'
p5758
aS'249'
p5759
aS'56'
p5760
aS'68'
p5761
aS'71'
p5762
aa(lp5763
S'25'
p5764
aS'26'
p5765
aS'37'
p5766
aS'61'
p5767
aS'71'
p5768
aa(lp5769
S'451'
p5770
aS'9201'
p5771
aS'14563'
p5772
aS'59807'
p5773
aS'18512'
p5774
aa(lp5775
S'5'
aS'109'
p5776
aS'104'
p5777
aS'39'
p5778
aS'1'
aa(lp5779
S'170'
p5780
aS'249'
p5781
aS'184'
p5782
aS'55'
p5783
aS'56'
p5784
aa(lp5785
S'170'
p5786
aS'249'
p5787
aS'184'
p5788
aS'55'
p5789
aS'57'
p5790
aa(lp5791
S'2'
aS'359'
p5792
aS'73091'
p5793
aS'8'
aS'4'
aa(lp5794
S'25'
p5795
aS'26'
p5796
aS'49'
p5797
aS'56'
p5798
aS'83'
p5799
aa(lp5800
S'100'
p5801
aS'107'
p5802
aS'208'
p5803
aS'25'
p5804
aS'68'
p5805
aa(lp5806
S'32626'
p5807
aS'107'
p5808
aS'13'
p5809
aS'46441'
p5810
aS'5694'
p5811
aa(lp5812
S'2'
aS'71262'
p5813
aS'5'
aS'29'
p5814
aS'60'
p5815
aa(lp5816
S'2017'
p5817
aS'295'
p5818
aS'746'
p5819
aS'6945'
p5820
aS'2592'
p5821
aa(lp5822
S'31'
p5823
aS'55'
p5824
aS'61'
p5825
aS'68'
p5826
aS'79'
p5827
aa(lp5828
S'662'
p5829
aS'125'
p5830
aS'14'
p5831
aS'8622'
p5832
aS'468'
p5833
aa(lp5834
S'60792'
p5835
aS'4102'
p5836
aS'14425'
p5837
aS'4340'
p5838
aS'31416'
p5839
aa(lp5840
S'176'
p5841
aS'190'
p5842
aS'14'
p5843
aS'1473'
p5844
aS'75'
p5845
aa(lp5846
S'306842'
p5847
aS'119179'
p5848
aS'1245'
p5849
aS'6201'
p5850
aS'3824'
p5851
aa(lp5852
S'6913'
p5853
aS'583'
p5854
aS'40998'
p5855
aS'11118'
p5856
aS'2027'
p5857
aa(lp5858
S'5'
aS'286'
p5859
aS'288'
p5860
aS'1'
aS'3486'
p5861
aa(lp5862
S'56'
p5863
aS'67'
p5864
aS'69'
p5865
aS'71'
p5866
aS'79'
p5867
aa(lp5868
S'1051'
p5869
aS'103'
p5870
aS'585'
p5871
aS'319'
p5872
aS'102839'
p5873
aa(lp5874
S'68174'
p5875
aS'5057'
p5876
aS'24463'
p5877
aS'3656'
p5878
aS'329'
p5879
aa(lp5880
S'8013'
p5881
aS'9201'
p5882
aS'14563'
p5883
aS'59807'
p5884
aS'40132'
p5885
aa(lp5886
S'727'
p5887
aS'1367'
p5888
aS'203'
p5889
aS'64'
p5890
aS'134'
p5891
aa(lp5892
S'390'
p5893
aS'437'
p5894
aS'43'
p5895
aS'52'
p5896
aS'8091'
p5897
aa(lp5898
S'451'
p5899
aS'14563'
p5900
aS'15881'
p5901
aS'87891'
p5902
aS'3634'
p5903
aa(lp5904
S'2304'
p5905
aS'219'
p5906
aS'167'
p5907
aS'148'
p5908
aS'284'
p5909
aa(lp5910
S'197'
p5911
aS'20438'
p5912
aS'41'
p5913
aS'540'
p5914
aS'60'
p5915
aa(lp5916
S'3656'
p5917
aS'7973'
p5918
aS'1456'
p5919
aS'52'
p5920
aS'923'
p5921
aa(lp5922
S'242'
p5923
aS'17'
p5924
aS'23'
p5925
aS'181'
p5926
aS'59'
p5927
aa(lp5928
S'23754'
p5929
aS'925'
p5930
aS'1434'
p5931
aS'40'
p5932
aS'4385'
p5933
aa(lp5934
S'95'
p5935
aS'4626'
p5936
aS'312'
p5937
aS'2595'
p5938
aS'12'
p5939
aa(lp5940
S'137046'
p5941
aS'7106'
p5942
aS'15881'
p5943
aS'107'
p5944
aS'5694'
p5945
aa(lp5946
S'391'
p5947
aS'1077'
p5948
aS'910'
p5949
aS'371'
p5950
aS'4667'
p5951
aa(lp5952
S'2703'
p5953
aS'444'
p5954
aS'23820'
p5955
aS'708'
p5956
aS'51'
p5957
aa(lp5958
S'25'
p5959
aS'26'
p5960
aS'37'
p5961
aS'56'
p5962
aS'71'
p5963
aa(lp5964
S'14'
p5965
aS'31'
p5966
aS'55'
p5967
aS'65'
p5968
aS'69'
p5969
aa(lp5970
S'25'
p5971
aS'26'
p5972
aS'31'
p5973
aS'60'
p5974
aS'71'
p5975
aa(lp5976
S'56'
p5977
aS'67'
p5978
aS'69'
p5979
aS'72'
p5980
aS'79'
p5981
aa(lp5982
S'8013'
p5983
aS'14563'
p5984
aS'36894'
p5985
aS'1530'
p5986
aS'20176'
p5987
aa(lp5988
S'2'
aS'5'
aS'8'
aS'39'
p5989
aS'86'
p5990
aa(lp5991
S'34'
p5992
aS'25'
p5993
aS'866'
p5994
aS'60'
p5995
aS'71'
p5996
aa(lp5997
S'25'
p5998
aS'26'
p5999
aS'31'
p6000
aS'60'
p6001
aS'79'
p6002
aa(lp6003
S'14'
p6004
aS'25'
p6005
aS'26'
p6006
aS'369'
p6007
aS'72'
p6008
aa(lp6009
S'169'
p6010
aS'61'
p6011
aS'72'
p6012
aS'134'
p6013
aS'87'
p6014
aa(lp6015
S'56'
p6016
aS'67'
p6017
aS'69'
p6018
aS'72'
p6019
aS'71'
p6020
aa(lp6021
S'14'
p6022
aS'25'
p6023
aS'26'
p6024
aS'369'
p6025
aS'71'
p6026
aa(lp6027
S'1628'
p6028
aS'1274'
p6029
aS'56878'
p6030
aS'70577'
p6031
aS'329'
p6032
aa(lp6033
S'251'
p6034
aS'25'
p6035
aS'26'
p6036
aS'369'
p6037
aS'71'
p6038
aa(lp6039
S'251'
p6040
aS'25'
p6041
aS'26'
p6042
aS'369'
p6043
aS'72'
p6044
aa(lp6045
S'238'
p6046
aS'1469'
p6047
aS'5551'
p6048
aS'4947'
p6049
aS'3570'
p6050
aa(lp6051
S'273'
p6052
aS'7085'
p6053
aS'11661'
p6054
aS'49'
p6055
aS'676'
p6056
aa(lp6057
S'251'
p6058
aS'25'
p6059
aS'26'
p6060
aS'369'
p6061
aS'75'
p6062
aa(lp6063
S'93'
p6064
aS'219'
p6065
aS'124'
p6066
aS'289'
p6067
aS'80'
p6068
aa(lp6069
S'95'
p6070
aS'1957'
p6071
aS'13'
p6072
aS'381'
p6073
aS'43'
p6074
aa(lp6075
S'39368'
p6076
aS'6892'
p6077
aS'9300'
p6078
aS'6938'
p6079
aS'11153'
p6080
aa(lp6081
S'90'
p6082
aS'38'
p6083
aS'2'
aS'8'
aS'4'
aa(lp6084
S'8013'
p6085
aS'238486'
p6086
aS'232641'
p6087
aS'428910'
p6088
aS'575094'
p6089
aS'494594'
p6090
aa(lp6091
S'592'
p6092
aS'4928'
p6093
aS'14'
p6094
aS'37'
p6095
aS'3148'
p6096
aa(lp6097
S'140'
p6098
aS'10'
p6099
aS'41'
p6100
aS'1886'
p6101
aS'83'
p6102
aa(lp6103
S'391'
p6104
aS'298'
p6105
aS'297'
p6106
aS'10'
p6107
aS'134'
p6108
aa(lp6109
S'95'
p6110
aS'192'
p6111
aS'269'
p6112
aS'37'
p6113
aS'80'
p6114
aa(lp6115
S'854'
p6116
aS'3436'
p6117
aS'225'
p6118
aS'11555'
p6119
aS'322'
p6120
aa(lp6121
S'854'
p6122
aS'3436'
p6123
aS'225'
p6124
aS'11555'
p6125
aS'320'
p6126
aa(lp6127
S'498166'
p6128
aS'2158'
p6129
aS'606'
p6130
aS'195339'
p6131
aS'79990'
p6132
aS'478167'
p6133
aa(lp6134
S'1341'
p6135
aS'445042'
p6136
aS'1120'
p6137
aS'1355'
p6138
aS'242606'
p6139
aa(lp6140
S'103'
p6141
aS'146'
p6142
aS'60'
p6143
aS'61'
p6144
aS'83'
p6145
aa(lp6146
S'27378'
p6147
aS'44240'
p6148
aS'326925'
p6149
aS'3110'
p6150
aS'108198'
p6151
aS'305047'
p6152
aa(lp6153
S'179'
p6154
aS'211'
p6155
aS'100'
p6156
aS'204'
p6157
aS'27'
p6158
aa(lp6159
S'2723'
p6160
aS'843'
p6161
aS'44'
p6162
aS'6978'
p6163
aS'52'
p6164
aa(lp6165
S'211'
p6166
aS'5013'
p6167
aS'1032'
p6168
aS'204'
p6169
aS'785'
p6170
aa(lp6171
S'5'
aS'515'
p6172
aS'22'
p6173
aS'343'
p6174
aS'542'
p6175
aa(lp6176
S'14'
p6177
aS'25'
p6178
aS'26'
p6179
aS'69'
p6180
aS'79'
p6181
aa(lp6182
S'312'
p6183
aS'5'
aS'22'
p6184
aS'542'
p6185
aS'1067'
p6186
aa(lp6187
S'49792'
p6188
aS'25156'
p6189
aS'261640'
p6190
aS'3110'
p6191
aS'108198'
p6192
aS'305047'
p6193
aa(lp6194
S'910'
p6195
aS'20034'
p6196
aS'11554'
p6197
aS'17583'
p6198
aS'14096'
p6199
aa(lp6200
S'200'
p6201
aS'26'
p6202
aS'49'
p6203
aS'55'
p6204
aS'84'
p6205
aa(lp6206
S'159'
p6207
aS'25'
p6208
aS'67'
p6209
aS'68'
p6210
aS'71'
p6211
aa(lp6212
S'95'
p6213
aS'16069'
p6214
aS'13'
p6215
aS'381'
p6216
aS'43'
p6217
aa(lp6218
S'697065'
p6219
aS'47619'
p6220
aS'12152'
p6221
aS'4688'
p6222
aS'125348'
p6223
aS'43945'
p6224
aa(lp6225
S'15170'
p6226
aS'1192'
p6227
aS'226'
p6228
aS'4409'
p6229
aS'51'
p6230
aa(lp6231
S'26'
p6232
aS'184'
p6233
aS'31'
p6234
aS'67'
p6235
aS'71'
p6236
aa(lp6237
S'698350'
p6238
aS'11795'
p6239
aS'52'
p6240
aS'15034'
p6241
aS'5233'
p6242
aa(lp6243
S'16069'
p6244
aS'1957'
p6245
aS'13'
p6246
aS'381'
p6247
aS'43'
p6248
aa(lp6249
S'1859'
p6250
aS'8'
aS'46443'
p6251
aS'66'
p6252
aS'83'
p6253
aa(lp6254
S'396'
p6255
aS'107'
p6256
aS'2190'
p6257
aS'25'
p6258
aS'2817'
p6259
aa(lp6260
S'92'
p6261
aS'215'
p6262
aS'124'
p6263
aS'13'
p6264
aS'784'
p6265
aa(lp6266
S'94'
p6267
aS'107'
p6268
aS'26'
p6269
aS'55'
p6270
aS'87'
p6271
aa(lp6272
S'306842'
p6273
aS'119179'
p6274
aS'1245'
p6275
aS'246580'
p6276
aS'482919'
p6277
aa(lp6278
S'839'
p6279
aS'301'
p6280
aS'5299'
p6281
aS'7375'
p6282
aS'4325'
p6283
aa(lp6284
S'5'
aS'11'
p6285
aS'8'
aS'39'
p6286
aS'86'
p6287
aa(lp6288
S'176'
p6289
aS'198'
p6290
aS'107'
p6291
aS'281'
p6292
aS'133'
p6293
aa(lp6294
S'25'
p6295
aS'26'
p6296
aS'31'
p6297
aS'56'
p6298
aS'75'
p6299
aa(lp6300
S'19403'
p6301
aS'10'
p6302
aS'1434'
p6303
aS'4385'
p6304
aS'2108'
p6305
aa(lp6306
S'176'
p6307
aS'198'
p6308
aS'107'
p6309
aS'281'
p6310
aS'137'
p6311
aa(lp6312
S'25'
p6313
aS'26'
p6314
aS'31'
p6315
aS'56'
p6316
aS'71'
p6317
aa(lp6318
S'260'
p6319
aS'226'
p6320
aS'1318'
p6321
aS'1397'
p6322
aS'87'
p6323
aa(lp6324
S'251'
p6325
aS'14'
p6326
aS'26'
p6327
aS'37'
p6328
aS'66'
p6329
aa(lp6330
S'413'
p6331
aS'10'
p6332
aS'9392'
p6333
aS'1088'
p6334
aS'770'
p6335
aa(lp6336
S'25'
p6337
aS'26'
p6338
aS'31'
p6339
aS'56'
p6340
aS'79'
p6341
aa(lp6342
S'857'
p6343
aS'475'
p6344
aS'1692'
p6345
aS'185'
p6346
aS'119'
p6347
aa(lp6348
S'38'
p6349
aS'5'
aS'8'
aS'39'
p6350
aS'86'
p6351
aa(lp6352
S'34'
p6353
aS'249'
p6354
aS'165'
p6355
aS'25'
p6356
aS'64'
p6357
aa(lp6358
S'143'
p6359
aS'22'
p6360
aS'132'
p6361
aS'73'
p6362
aS'131'
p6363
aa(lp6364
S'792'
p6365
aS'1992'
p6366
aS'21059'
p6367
aS'2240'
p6368
aS'1495'
p6369
aa(lp6370
S'34'
p6371
aS'249'
p6372
aS'165'
p6373
aS'25'
p6374
aS'61'
p6375
aa(lp6376
S'34'
p6377
aS'249'
p6378
aS'165'
p6379
aS'25'
p6380
aS'60'
p6381
aa(lp6382
S'337'
p6383
aS'56'
p6384
aS'64'
p6385
aS'71'
p6386
aS'79'
p6387
aa(lp6388
S'34'
p6389
aS'241'
p6390
aS'25'
p6391
aS'188'
p6392
aS'57'
p6393
aa(lp6394
S'34'
p6395
aS'241'
p6396
aS'25'
p6397
aS'188'
p6398
aS'56'
p6399
aa(lp6400
S'6359'
p6401
aS'2236'
p6402
aS'493477'
p6403
aS'1040'
p6404
aS'7931'
p6405
aa(lp6406
S'34'
p6407
aS'249'
p6408
aS'165'
p6409
aS'25'
p6410
aS'68'
p6411
aa(lp6412
S'3'
aS'22250'
p6413
aS'3403'
p6414
aS'89'
p6415
aS'118'
p6416
aa(lp6417
S'237'
p6418
aS'34'
p6419
aS'182'
p6420
aS'57'
p6421
aS'64'
p6422
aa(lp6423
S'237'
p6424
aS'34'
p6425
aS'182'
p6426
aS'57'
p6427
aS'65'
p6428
aa(lp6429
S'11548'
p6430
aS'268'
p6431
aS'5607'
p6432
aS'5792'
p6433
aS'469'
p6434
aa(lp6435
S'94'
p6436
aS'1629'
p6437
aS'208'
p6438
aS'22'
p6439
aS'548'
p6440
aa(lp6441
S'25'
p6442
aS'26'
p6443
aS'33'
p6444
aS'71'
p6445
aS'82'
p6446
aa(lp6447
S'857'
p6448
aS'515'
p6449
aS'14'
p6450
aS'343'
p6451
aS'80'
p6452
aa(lp6453
S'6368'
p6454
aS'680'
p6455
aS'371'
p6456
aS'138190'
p6457
aS'5342'
p6458
aa(lp6459
S'90'
p6460
aS'95'
p6461
aS'219'
p6462
aS'49'
p6463
aS'80'
p6464
aa(lp6465
S'4768'
p6466
aS'409415'
p6467
aS'64372'
p6468
aS'1753'
p6469
aS'482919'
p6470
aa(lp6471
S'6'
aS'460406'
p6472
aS'102'
p6473
aS'20'
p6474
aS'119'
p6475
aa(lp6476
S'13111'
p6477
aS'9201'
p6478
aS'14563'
p6479
aS'59807'
p6480
aS'40132'
p6481
aa(lp6482
S'1517'
p6483
aS'13'
p6484
aS'3755'
p6485
aS'4695'
p6486
aS'369'
p6487
aS'1842'
p6488
aa(lp6489
S'232'
p6490
aS'7349'
p6491
aS'123'
p6492
aS'30'
p6493
aS'111'
p6494
aa(lp6495
S'34'
p6496
aS'107'
p6497
aS'2190'
p6498
aS'25'
p6499
aS'31'
p6500
aa(lp6501
S'107'
p6502
aS'146'
p6503
aS'31'
p6504
aS'60'
p6505
aS'79'
p6506
aa(lp6507
S'170'
p6508
aS'237'
p6509
aS'25'
p6510
aS'31'
p6511
aS'64'
p6512
aa(lp6513
S'217'
p6514
aS'3662'
p6515
aS'189'
p6516
aS'281'
p6517
aS'73'
p6518
aa(lp6519
S'177'
p6520
aS'196'
p6521
aS'22'
p6522
aS'51'
p6523
aS'111'
p6524
aa(lp6525
S'6'
aS'146'
p6526
aS'28'
p6527
aS'49'
p6528
aS'83'
p6529
aa(lp6530
S'34'
p6531
aS'242'
p6532
aS'10'
p6533
aS'67'
p6534
aS'80'
p6535
aa(lp6536
S'103'
p6537
aS'146'
p6538
aS'24'
p6539
aS'27'
p6540
aS'83'
p6541
aa(lp6542
S'94'
p6543
aS'55'
p6544
aS'66'
p6545
aS'71'
p6546
aS'117'
p6547
aa(lp6548
S'4882'
p6549
aS'4950'
p6550
aS'14273'
p6551
aS'95147'
p6552
aS'123986'
p6553
aa(lp6554
S'49792'
p6555
aS'25156'
p6556
aS'261640'
p6557
aS'108198'
p6558
aS'6477'
p6559
aS'202003'
p6560
aa(lp6561
S'1014'
p6562
aS'1245'
p6563
aS'482919'
p6564
aS'11900'
p6565
aS'11013'
p6566
aa(lp6567
S'621'
p6568
aS'57283'
p6569
aS'13798'
p6570
aS'946'
p6571
aS'5962'
p6572
aa(lp6573
S'34'
p6574
aS'52'
p6575
aS'66'
p6576
aS'71'
p6577
aS'117'
p6578
aa(lp6579
S'199'
p6580
aS'1422'
p6581
aS'1034'
p6582
aS'2894'
p6583
aS'22'
p6584
aa(lp6585
S'25'
p6586
aS'26'
p6587
aS'49'
p6588
aS'57'
p6589
aS'66'
p6590
aa(lp6591
S'14'
p6592
aS'31'
p6593
aS'55'
p6594
aS'60'
p6595
aS'66'
p6596
aa(lp6597
S'2'
aS'436'
p6598
aS'17'
p6599
aS'58'
p6600
aS'83'
p6601
aa(lp6602
S'698350'
p6603
aS'698354'
p6604
aS'18285'
p6605
aS'4715'
p6606
aS'5233'
p6607
aa(lp6608
S'93'
p6609
aS'389'
p6610
aS'167'
p6611
aS'289'
p6612
aS'78'
p6613
aa(lp6614
S'394'
p6615
aS'11571'
p6616
aS'4186'
p6617
aS'24609'
p6618
aS'2125'
p6619
aa(lp6620
S'107'
p6621
aS'148'
p6622
aS'14'
p6623
aS'55'
p6624
aS'57'
p6625
aa(lp6626
S'4768'
p6627
aS'1753'
p6628
aS'11900'
p6629
aS'7253'
p6630
aS'9095'
p6631
aa(lp6632
S'18094'
p6633
aS'13618'
p6634
aS'6378'
p6635
aS'2750'
p6636
aS'964'
p6637
aS'8108'
p6638
aa(lp6639
S'251'
p6640
aS'14'
p6641
aS'26'
p6642
aS'31'
p6643
aS'66'
p6644
aa(lp6645
S'69910'
p6646
aS'31818'
p6647
aS'1070'
p6648
aS'196315'
p6649
aS'125348'
p6650
aS'328867'
p6651
aa(lp6652
S'34'
p6653
aS'242'
p6654
aS'57'
p6655
aS'67'
p6656
aS'71'
p6657
aa(lp6658
S'34'
p6659
aS'184'
p6660
aS'31'
p6661
aS'60'
p6662
aS'79'
p6663
aa(lp6664
S'12203'
p6665
aS'87923'
p6666
aS'4396'
p6667
aS'6359'
p6668
aS'69007'
p6669
aS'306'
p6670
aa(lp6671
S'8961'
p6672
aS'243949'
p6673
aS'848'
p6674
aS'1080'
p6675
aS'5941'
p6676
aa(lp6677
S'2192'
p6678
aS'3112'
p6679
aS'125'
p6680
aS'474'
p6681
aS'285'
p6682
aa(lp6683
S'57611'
p6684
aS'14'
p6685
aS'26'
p6686
aS'31'
p6687
aS'64'
p6688
aa(lp6689
S'34'
p6690
aS'184'
p6691
aS'31'
p6692
aS'60'
p6693
aS'71'
p6694
aa(lp6695
S'95'
p6696
aS'107'
p6697
aS'13'
p6698
aS'22'
p6699
aS'36'
p6700
aa(lp6701
S'6'
aS'10'
p6702
aS'15'
p6703
aS'2261'
p6704
aS'1'
aa(lp6705
S'6'
aS'3213'
p6706
aS'24'
p6707
aS'185'
p6708
aS'2623'
p6709
aa(lp6710
S'34'
p6711
aS'125'
p6712
aS'25'
p6713
aS'60'
p6714
aS'71'
p6715
aa(lp6716
S'34'
p6717
aS'241'
p6718
aS'184'
p6719
aS'68'
p6720
aS'71'
p6721
aa(lp6722
S'592'
p6723
aS'1403'
p6724
aS'14'
p6725
aS'774'
p6726
aS'3148'
p6727
aa(lp6728
S'124'
p6729
aS'229'
p6730
aS'208'
p6731
aS'72'
p6732
aS'731'
p6733
aa(lp6734
S'625722'
p6735
aS'24357'
p6736
aS'113589'
p6737
aS'26570'
p6738
aS'82875'
p6739
aS'3572'
p6740
aa(lp6741
S'19403'
p6742
aS'10'
p6743
aS'1434'
p6744
aS'40'
p6745
aS'4385'
p6746
aa(lp6747
S'155'
p6748
aS'202'
p6749
aS'14'
p6750
aS'49'
p6751
aS'78'
p6752
aa(lp6753
S'532'
p6754
aS'825'
p6755
aS'17'
p6756
aS'902'
p6757
aS'36'
p6758
aa(lp6759
S'37982'
p6760
aS'413'
p6761
aS'767'
p6762
aS'1088'
p6763
aS'770'
p6764
aa(lp6765
S'170'
p6766
aS'249'
p6767
aS'184'
p6768
aS'31'
p6769
aS'56'
p6770
aa(lp6771
S'31'
p6772
aS'55'
p6773
aS'69'
p6774
aS'79'
p6775
aS'80'
p6776
aa(lp6777
S'37982'
p6778
aS'10'
p6779
aS'9392'
p6780
aS'1088'
p6781
aS'770'
p6782
aa(lp6783
S'174'
p6784
aS'157'
p6785
aS'15251'
p6786
aS'14'
p6787
aS'55'
p6788
aa(lp6789
S'170'
p6790
aS'249'
p6791
aS'184'
p6792
aS'31'
p6793
aS'57'
p6794
aa(lp6795
S'1152'
p6796
aS'3738'
p6797
aS'269'
p6798
aS'37'
p6799
aS'55757'
p6800
aa(lp6801
S'93'
p6802
aS'233'
p6803
aS'161'
p6804
aS'2021'
p6805
aS'1449'
p6806
aa(lp6807
S'211'
p6808
aS'247'
p6809
aS'167'
p6810
aS'37'
p6811
aS'1829'
p6812
aa(lp6813
S'103'
p6814
aS'146'
p6815
aS'31'
p6816
aS'60'
p6817
aS'79'
p6818
aa(lp6819
S'170'
p6820
aS'241'
p6821
aS'249'
p6822
aS'25'
p6823
aS'182'
p6824
aa(lp6825
S'179'
p6826
aS'627'
p6827
aS'27'
p6828
aS'37'
p6829
aS'1829'
p6830
aa(lp6831
S'19059'
p6832
aS'232641'
p6833
aS'23705'
p6834
aS'19'
p6835
aS'494594'
p6836
aS'7931'
p6837
aa(lp6838
S'256'
p6839
aS'92'
p6840
aS'215'
p6841
aS'750'
p6842
aS'87'
p6843
aa(lp6844
S'140'
p6845
aS'17'
p6846
aS'29'
p6847
aS'8'
aS'4'
aa(lp6848
S'107'
p6849
aS'31'
p6850
aS'37'
p6851
aS'61'
p6852
aS'79'
p6853
aa(lp6854
S'237'
p6855
aS'34'
p6856
aS'182'
p6857
aS'188'
p6858
aS'67'
p6859
aa(lp6860
S'275'
p6861
aS'986'
p6862
aS'60'
p6863
aS'66'
p6864
aS'133'
p6865
aa(lp6866
S'34'
p6867
aS'242'
p6868
aS'57'
p6869
aS'71'
p6870
aS'79'
p6871
aa(lp6872
S'34'
p6873
aS'25'
p6874
aS'52717'
p6875
aS'2457'
p6876
aS'133'
p6877
aa(lp6878
S'57'
p6879
aS'65'
p6880
aS'66'
p6881
aS'67'
p6882
aS'71'
p6883
aa(lp6884
S'179'
p6885
aS'5013'
p6886
aS'1032'
p6887
aS'204'
p6888
aS'1829'
p6889
aa(lp6890
S'174'
p6891
aS'2'
aS'438'
p6892
aS'6448'
p6893
aS'49'
p6894
aa(lp6895
S'94'
p6896
aS'7740'
p6897
aS'3237'
p6898
aS'429'
p6899
aS'2123'
p6900
aa(lp6901
S'857'
p6902
aS'312'
p6903
aS'515'
p6904
aS'37'
p6905
aS'343'
p6906
aa(lp6907
S'170'
p6908
aS'241'
p6909
aS'188'
p6910
aS'56'
p6911
aS'71'
p6912
aa(lp6913
S'95'
p6914
aS'389'
p6915
aS'167'
p6916
aS'289'
p6917
aS'78'
p6918
aa(lp6919
S'93'
p6920
aS'14'
p6921
aS'203'
p6922
aS'66'
p6923
aS'72'
p6924
aa(lp6925
S'170'
p6926
aS'241'
p6927
aS'188'
p6928
aS'56'
p6929
aS'79'
p6930
aa(lp6931
S'729'
p6932
aS'25'
p6933
aS'67'
p6934
aS'68'
p6935
aS'71'
p6936
aa(lp6937
S'34'
p6938
aS'249'
p6939
aS'60'
p6940
aS'61'
p6941
aS'79'
p6942
aa(lp6943
S'26'
p6944
aS'8'
aS'31'
p6945
aS'60'
p6946
aS'71'
p6947
aa(lp6948
S'14'
p6949
aS'31'
p6950
aS'55'
p6951
aS'68'
p6952
aS'79'
p6953
aa(lp6954
S'4768'
p6955
aS'1245'
p6956
aS'6201'
p6957
aS'1753'
p6958
aS'482919'
p6959
aa(lp6960
S'972'
p6961
aS'1850'
p6962
aS'1868'
p6963
aS'13'
p6964
aS'2240'
p6965
aa(lp6966
S'169923'
p6967
aS'1875'
p6968
aS'17'
p6969
aS'2273'
p6970
aS'36'
p6971
aa(lp6972
S'169923'
p6973
aS'1875'
p6974
aS'17'
p6975
aS'2273'
p6976
aS'37'
p6977
aa(lp6978
S'103'
p6979
aS'107'
p6980
aS'146'
p6981
aS'1'
aS'83'
p6982
aa(lp6983
S'337'
p6984
aS'107'
p6985
aS'26'
p6986
aS'56'
p6987
aS'79'
p6988
aa(lp6989
S'251'
p6990
aS'151'
p6991
aS'215'
p6992
aS'37'
p6993
aS'66'
p6994
aa(lp6995
S'974'
p6996
aS'9363'
p6997
aS'1885'
p6998
aS'528'
p6999
aS'7897'
p7000
aa(lp7001
S'156'
p7002
aS'4375'
p7003
aS'14'
p7004
aS'1695'
p7005
aS'752'
p7006
aS'2597'
p7007
aa(lp7008
S'858'
p7009
aS'1245'
p7010
aS'6201'
p7011
aS'1753'
p7012
aS'3824'
p7013
aa(lp7014
S'31818'
p7015
aS'1070'
p7016
aS'19232'
p7017
aS'196315'
p7018
aS'125348'
p7019
aS'328867'
p7020
aa(lp7021
S'92'
p7022
aS'211'
p7023
aS'298'
p7024
aS'3'
aS'321'
p7025
aa(lp7026
S'107'
p7027
aS'148'
p7028
aS'14'
p7029
aS'55'
p7030
aS'87'
p7031
aa(lp7032
S'176'
p7033
aS'261'
p7034
aS'100'
p7035
aS'160'
p7036
aS'281'
p7037
aa(lp7038
S'94'
p7039
aS'34'
p7040
aS'17'
p7041
aS'25'
p7042
aS'40'
p7043
aa(lp7044
S'55'
p7045
aS'65'
p7046
aS'66'
p7047
aS'67'
p7048
aS'71'
p7049
aa(lp7050
S'249'
p7051
aS'165'
p7052
aS'25'
p7053
aS'55'
p7054
aS'56'
p7055
aa(lp7056
S'103'
p7057
aS'146'
p7058
aS'17'
p7059
aS'58'
p7060
aS'83'
p7061
aa(lp7062
S'2397'
p7063
aS'889'
p7064
aS'15824'
p7065
aS'18575'
p7066
aS'5193'
p7067
aa(lp7068
S'34'
p7069
aS'26'
p7070
aS'31'
p7071
aS'322'
p7072
aS'67'
p7073
aa(lp7074
S'2'
aS'249'
p7075
aS'184'
p7076
aS'8'
aS'60'
p7077
aa(lp7078
S'8196'
p7079
aS'371'
p7080
aS'63795'
p7081
aS'784'
p7082
aS'13036'
p7083
aa(lp7084
S'14'
p7085
aS'25'
p7086
aS'26'
p7087
aS'47'
p7088
aS'72'
p7089
aa(lp7090
S'1176'
p7091
aS'59763'
p7092
aS'11435'
p7093
aS'2522'
p7094
aS'45858'
p7095
aa(lp7096
S'34'
p7097
aS'242'
p7098
aS'291'
p7099
aS'31'
p7100
aS'1184'
p7101
aa(lp7102
S'251'
p7103
aS'25'
p7104
aS'26'
p7105
aS'369'
p7106
aS'117'
p7107
aa(lp7108
S'392818'
p7109
aS'19059'
p7110
aS'15881'
p7111
aS'87891'
p7112
aS'3634'
p7113
aa(lp7114
S'237'
p7115
aS'331'
p7116
aS'31'
p7117
aS'60'
p7118
aS'71'
p7119
aa(lp7120
S'14'
p7121
aS'25'
p7122
aS'26'
p7123
aS'369'
p7124
aS'75'
p7125
aa(lp7126
S'90'
p7127
aS'93'
p7128
aS'95'
p7129
aS'4950'
p7130
aS'289'
p7131
aa(lp7132
S'248'
p7133
aS'4042'
p7134
aS'518'
p7135
aS'268'
p7136
aS'6565'
p7137
aa(lp7138
S'5'
aS'15'
p7139
aS'39'
p7140
aS'47'
p7141
aS'9'
aa(lp7142
S'237'
p7143
aS'331'
p7144
aS'31'
p7145
aS'60'
p7146
aS'79'
p7147
aa(lp7148
S'179'
p7149
aS'5013'
p7150
aS'1032'
p7151
aS'204'
p7152
aS'27'
p7153
aa(lp7154
S'34'
p7155
aS'249'
p7156
aS'60'
p7157
aS'61'
p7158
aS'71'
p7159
aa(lp7160
S'13111'
p7161
aS'19059'
p7162
aS'36894'
p7163
aS'101376'
p7164
aS'40132'
p7165
aa(lp7166
S'249'
p7167
aS'165'
p7168
aS'25'
p7169
aS'188'
p7170
aS'31'
p7171
aa(lp7172
S'103'
p7173
aS'146'
p7174
aS'31'
p7175
aS'37'
p7176
aS'66'
p7177
aa(lp7178
S'2'
aS'242'
p7179
aS'25'
p7180
aS'47'
p7181
aS'1845'
p7182
aa(lp7183
S'95'
p7184
aS'107'
p7185
aS'37'
p7186
aS'589'
p7187
aS'80'
p7188
aS'118'
p7189
aa(lp7190
S'92'
p7191
aS'34'
p7192
aS'107'
p7193
aS'71'
p7194
aS'80'
p7195
aa(lp7196
S'698350'
p7197
aS'18285'
p7198
aS'52'
p7199
aS'15034'
p7200
aS'5233'
p7201
aa(lp7202
S'7107'
p7203
aS'24357'
p7204
aS'113589'
p7205
aS'26570'
p7206
aS'82875'
p7207
aS'3572'
p7208
aa(lp7209
S'3'
aS'10'
p7210
aS'185'
p7211
aS'37'
p7212
aS'66'
p7213
aa(lp7214
S'14'
p7215
aS'25'
p7216
aS'26'
p7217
aS'182'
p7218
aS'31'
p7219
aa(lp7220
S'392818'
p7221
aS'19059'
p7222
aS'9201'
p7223
aS'101376'
p7224
aS'20176'
p7225
aa(lp7226
S'185'
p7227
aS'541'
p7228
aS'64'
p7229
aS'71'
p7230
aS'80'
p7231
aa(lp7232
S'37'
p7233
aS'49'
p7234
aS'56'
p7235
aS'61'
p7236
aS'71'
p7237
aa(lp7238
S'7043'
p7239
aS'179781'
p7240
aS'1336'
p7241
aS'43'
p7242
aS'135'
p7243
aa(lp7244
S'90'
p7245
aS'391'
p7246
aS'910'
p7247
aS'26355'
p7248
aS'928'
p7249
aa(lp7250
S'178'
p7251
aS'290'
p7252
aS'706'
p7253
aS'72'
p7254
aS'71'
p7255
aa(lp7256
S'94'
p7257
aS'1629'
p7258
aS'167'
p7259
aS'208'
p7260
aS'22'
p7261
aa(lp7262
S'236'
p7263
aS'1125'
p7264
aS'16'
p7265
aS'928'
p7266
aS'74'
p7267
aa(lp7268
S'5'
aS'412'
p7269
aS'132'
p7270
aS'43'
p7271
aS'69'
p7272
aa(lp7273
S'394'
p7274
aS'914'
p7275
aS'2586'
p7276
aS'403'
p7277
aS'4018'
p7278
aa(lp7279
S'14'
p7280
aS'31'
p7281
aS'37'
p7282
aS'56'
p7283
aS'80'
p7284
aa(lp7285
S'271'
p7286
aS'15117'
p7287
aS'206'
p7288
aS'2597'
p7289
aS'1256'
p7290
aa(lp7291
S'26'
p7292
aS'31'
p7293
aS'57'
p7294
aS'71'
p7295
aS'79'
p7296
aa(lp7297
S'14'
p7298
aS'31'
p7299
aS'37'
p7300
aS'56'
p7301
aS'83'
p7302
aa(lp7303
S'26'
p7304
aS'184'
p7305
aS'188'
p7306
aS'56'
p7307
aS'79'
p7308
aa(lp7309
S'34'
p7310
aS'290'
p7311
aS'26'
p7312
aS'56'
p7313
aS'79'
p7314
aa(lp7315
S'26'
p7316
aS'182'
p7317
aS'188'
p7318
aS'56'
p7319
aS'71'
p7320
aa(lp7321
S'14'
p7322
aS'25'
p7323
aS'26'
p7324
aS'66'
p7325
aS'72'
p7326
aa(lp7327
S'34'
p7328
aS'55'
p7329
aS'65'
p7330
aS'68'
p7331
aS'134'
p7332
aa(lp7333
S'137046'
p7334
aS'502336'
p7335
aS'7106'
p7336
aS'15881'
p7337
aS'107'
p7338
aa(lp7339
S'34'
p7340
aS'242'
p7341
aS'57'
p7342
aS'65'
p7343
aS'80'
p7344
aa(lp7345
S'394'
p7346
aS'31744'
p7347
aS'18817'
p7348
aS'403'
p7349
aS'4018'
p7350
aa(lp7351
S'101'
p7352
aS'33'
p7353
aS'281'
p7354
aS'52'
p7355
aS'53'
p7356
aa(lp7357
S'26'
p7358
aS'182'
p7359
aS'188'
p7360
aS'56'
p7361
aS'79'
p7362
aa(lp7363
S'34'
p7364
aS'55'
p7365
aS'69'
p7366
aS'79'
p7367
aS'80'
p7368
aa(lp7369
S'729'
p7370
aS'25'
p7371
aS'67'
p7372
aS'68'
p7373
aS'30105'
p7374
aa(lp7375
S'125244'
p7376
aS'326925'
p7377
aS'261640'
p7378
aS'3110'
p7379
aS'108198'
p7380
aS'305047'
p7381
aa(lp7382
S'12444'
p7383
aS'124'
p7384
aS'167'
p7385
aS'49'
p7386
aS'72'
p7387
aa(lp7388
S'105'
p7389
aS'10'
p7390
aS'15'
p7391
aS'21'
p7392
aS'63'
p7393
aa(lp7394
S'39368'
p7395
aS'3098'
p7396
aS'6938'
p7397
aS'5193'
p7398
aS'11153'
p7399
aa(lp7400
S'14'
p7401
aS'26'
p7402
aS'31'
p7403
aS'60'
p7404
aS'71'
p7405
aa(lp7406
S'34'
p7407
aS'249'
p7408
aS'165'
p7409
aS'8'
aS'4'
aa(lp7410
S'176'
p7411
aS'1910'
p7412
aS'269'
p7413
aS'49'
p7414
aS'117'
p7415
aa(lp7416
S'52924'
p7417
aS'379'
p7418
aS'1473'
p7419
aS'1376'
p7420
aS'117'
p7421
aa(lp7422
S'14'
p7423
aS'31'
p7424
aS'369'
p7425
aS'75'
p7426
aS'71'
p7427
aa(lp7428
S'179'
p7429
aS'211'
p7430
aS'1032'
p7431
aS'204'
p7432
aS'785'
p7433
aa(lp7434
S'14'
p7435
aS'25'
p7436
aS'26'
p7437
aS'55'
p7438
aS'80'
p7439
aa(lp7440
S'149'
p7441
aS'31'
p7442
aS'37'
p7443
aS'61'
p7444
aS'72'
p7445
aa(lp7446
S'34'
p7447
aS'249'
p7448
aS'184'
p7449
aS'31'
p7450
aS'56'
p7451
aa(lp7452
S'34'
p7453
aS'249'
p7454
aS'184'
p7455
aS'31'
p7456
aS'57'
p7457
aa(lp7458
S'391'
p7459
aS'52105'
p7460
aS'3544'
p7461
aS'49'
p7462
aS'78'
p7463
aa(lp7464
S'25'
p7465
aS'26'
p7466
aS'31'
p7467
aS'56'
p7468
aS'72'
p7469
aa(lp7470
S'252'
p7471
aS'2'
aS'7'
aS'17'
p7472
aS'74'
p7473
aa(lp7474
S'94'
p7475
aS'92'
p7476
aS'100'
p7477
aS'47727'
p7478
aS'117'
p7479
aa(lp7480
S'94'
p7481
aS'66'
p7482
aS'69'
p7483
aS'72'
p7484
aS'80'
p7485
aa(lp7486
S'94'
p7487
aS'7740'
p7488
aS'1629'
p7489
aS'548'
p7490
aS'1396'
p7491
aa(lp7492
S'230'
p7493
aS'188'
p7494
aS'31'
p7495
aS'60'
p7496
aS'71'
p7497
aa(lp7498
S'391'
p7499
aS'52105'
p7500
aS'1038'
p7501
aS'55308'
p7502
aS'418'
p7503
aa(lp7504
S'107'
p7505
aS'146'
p7506
aS'24'
p7507
aS'27'
p7508
aS'83'
p7509
aa(lp7510
S'34'
p7511
aS'25'
p7512
aS'56'
p7513
aS'53'
p7514
aS'82'
p7515
aa(lp7516
S'34'
p7517
aS'25'
p7518
aS'56'
p7519
aS'61'
p7520
aS'72'
p7521
aa(lp7522
S'258'
p7523
aS'234'
p7524
aS'440'
p7525
aS'3691'
p7526
aS'3782'
p7527
aa(lp7528
S'7740'
p7529
aS'1629'
p7530
aS'435'
p7531
aS'3237'
p7532
aS'1396'
p7533
aa(lp7534
S'14'
p7535
aS'31'
p7536
aS'55'
p7537
aS'64'
p7538
aS'10863'
p7539
aa(lp7540
S'94'
p7541
aS'107'
p7542
aS'14'
p7543
aS'37'
p7544
aS'60'
p7545
aa.