(dp1
S'1258456'
p2
(lp3
S'1606902'
p4
asS'1586539'
p5
(lp6
S'1760350'
p7
aS'1675399'
p8
aS'1774536'
p9
aS'1774713'
p10
aS'682877'
p11
aS'2105599'
p12
aS'218438'
p13
aS'731389'
p14
aS'1774684'
p15
aS'1760396'
p16
aS'1760654'
p17
aS'332673'
p18
aS'2335872'
p19
aS'2013565'
p20
aS'2105458'
p21
aS'2105783'
p22
aS'1774516'
p23
aS'646139'
p24
aS'1774847'
p25
aS'1025903'
p26
asS'504617'
p27
(lp28
S'1419930'
p29
asS'1622607'
p30
(lp31
S'674753'
p32
asS'1870562'
p33
(lp34
S'1606902'
p35
asS'1356547'
p36
(lp37
S'1606717'
p38
asS'1842800'
p39
(lp40
S'1606902'
p41
asS'1823919'
p42
(lp43
S'1774539'
p44
aS'1774550'
p45
aS'1606609'
p46
asS'1751496'
p47
(lp48
S'1606609'
p49
asS'758397'
p50
(lp51
S'1606902'
p52
asS'370259'
p53
(lp54
S'1606607'
p55
asS'942226'
p56
(lp57
S'1606902'
p58
asS'1728726'
p59
(lp60
S'1606717'
p61
aS'2105598'
p62
asS'187249'
p63
(lp64
S'1606902'
p65
asS'239912'
p66
(lp67
S'1774717'
p68
asS'1583456'
p69
(lp70
S'1775013'
p71
asS'2037596'
p72
(lp73
S'699215'
p74
aS'502744'
p75
aS'713254'
p76
aS'623203'
p77
aS'777033'
p78
aS'330571'
p79
aS'338764'
p80
aS'778749'
p81
aS'142372'
p82
aS'1606574'
p83
aS'588271'
p84
aS'1774502'
p85
aS'592273'
p86
aS'735033'
p87
aS'193952'
p88
aS'629574'
p89
aS'2012081'
p90
aS'218438'
p91
aS'2105598'
p92
aS'1606607'
p93
aS'491557'
p94
aS'456253'
p95
aS'563514'
p96
aS'225500'
p97
aS'1775025'
p98
aS'1775003'
p99
aS'1760396'
p100
aS'1760398'
p101
aS'682877'
p102
aS'1760362'
p103
aS'1774776'
p104
aS'1760400'
p105
aS'627961'
p106
aS'628623'
p107
aS'1775044'
p108
aS'1775006'
p109
aS'1774996'
p110
aS'2105515'
p111
aS'1760399'
p112
aS'562574'
p113
aS'1760386'
p114
aS'572220'
p115
aS'713228'
p116
aS'1606608'
p117
aS'421653'
p118
asS'1755554'
p119
(lp120
S'1606902'
p121
asS'505104'
p122
(lp123
S'646592'
p124
asS'448499'
p125
(lp126
S'1606902'
p127
asS'862871'
p128
(lp129
S'1606717'
p130
asS'1402137'
p131
(lp132
S'1775045'
p133
asS'2079862'
p134
(lp135
S'1606902'
p136
asS'1465493'
p137
(lp138
S'1775029'
p139
asS'490292'
p140
(lp141
S'647356'
p142
asS'1732241'
p143
(lp144
S'1606902'
p145
asS'1097134'
p146
(lp147
S'1774816'
p148
aS'2105603'
p149
aS'1760642'
p150
aS'1775029'
p151
aS'1774520'
p152
aS'1775014'
p153
aS'1760381'
p154
aS'2105484'
p155
aS'1606515'
p156
aS'1774962'
p157
aS'1775040'
p158
aS'2105575'
p159
aS'1606717'
p160
aS'1774588'
p161
aS'713229'
p162
asS'646824'
p163
(lp164
S'1606902'
p165
asS'448819'
p166
(lp167
S'1774505'
p168
asS'733477'
p169
(lp170
S'1606902'
p171
asS'305307'
p172
(lp173
S'724706'
p174
asS'2065067'
p175
(lp176
S'1774684'
p177
aS'1606515'
p178
aS'441554'
p179
aS'1760320'
p180
asS'1093891'
p181
(lp182
S'456253'
p183
aS'586592'
p184
aS'800789'
p185
aS'1774594'
p186
aS'1760398'
p187
aS'1775024'
p188
aS'563514'
p189
aS'458026'
p190
aS'731434'
p191
aS'1775011'
p192
asS'1778702'
p193
(lp194
S'1606717'
p195
asS'420934'
p196
(lp197
S'1606902'
p198
aS'2188303'
p199
aS'1774520'
p200
aS'1774967'
p201
asS'1982807'
p202
(lp203
S'2224167'
p204
aS'1606574'
p205
aS'922070'
p206
asS'2053799'
p207
(lp208
S'1774505'
p209
aS'1775011'
p210
asS'873238'
p211
(lp212
S'1774594'
p213
aS'1774454'
p214
aS'1760376'
p215
aS'1774505'
p216
aS'1928748'
p217
aS'1774722'
p218
aS'1606608'
p219
aS'713228'
p220
aS'713219'
p221
aS'2188303'
p222
aS'1760350'
p223
asS'1501712'
p224
(lp225
S'713254'
p226
asS'1268838'
p227
(lp228
S'1606717'
p229
asS'919364'
p230
(lp231
S'713254'
p232
aS'1675399'
p233
aS'1774963'
p234
asS'649680'
p235
(lp236
S'1606717'
p237
asS'348578'
p238
(lp239
S'1774649'
p240
asS'358290'
p241
(lp242
S'1606717'
p243
asS'1558467'
p244
(lp245
S'2105599'
p246
asS'608825'
p247
(lp248
S'1606902'
p249
asS'1742430'
p250
(lp251
S'1606717'
p252
asS'1535494'
p253
(lp254
S'218438'
p255
asS'121524'
p256
(lp257
S'2012081'
p258
asS'101945'
p259
(lp260
S'1774684'
p261
asS'274160'
p262
(lp263
S'1606902'
p264
asS'184991'
p265
(lp266
S'1606902'
p267
aS'2012081'
p268
asS'1983615'
p269
(lp270
S'1774482'
p271
aS'1349990'
p272
aS'1774797'
p273
aS'1774963'
p274
aS'1837210'
p275
aS'2105603'
p276
aS'2105550'
p277
aS'713250'
p278
aS'2105453'
p279
aS'665932'
p280
aS'1774502'
p281
aS'2188303'
p282
asS'2017509'
p283
(lp284
S'1775025'
p285
asS'1829275'
p286
(lp287
S'436442'
p288
asS'2081073'
p289
(lp290
S'1606902'
p291
aS'1606717'
p292
asS'1605237'
p293
(lp294
S'1837210'
p295
aS'1774963'
p296
aS'647356'
p297
asS'2025804'
p298
(lp299
S'1606717'
p300
aS'1606902'
p301
asS'1894999'
p302
(lp303
S'172508'
p304
aS'1774684'
p305
aS'218438'
p306
aS'2287260'
p307
aS'1774594'
p308
aS'1606717'
p309
aS'1760654'
p310
aS'1774520'
p311
aS'513098'
p312
aS'1774862'
p313
aS'1774960'
p314
aS'2105458'
p315
aS'621623'
p316
aS'306022'
p317
aS'1774938'
p318
aS'1928655'
p319
aS'1774797'
p320
asS'275767'
p321
(lp322
S'1775042'
p323
asS'313431'
p324
(lp325
S'1837210'
p326
asS'1594876'
p327
(lp328
S'1760376'
p329
asS'1382443'
p330
(lp331
S'1774862'
p332
asS'715219'
p333
(lp334
S'713229'
p335
aS'1760376'
p336
aS'1774684'
p337
asS'528229'
p338
(lp339
S'1760362'
p340
asS'138511'
p341
(lp342
S'930749'
p343
asS'1213551'
p344
(lp345
S'1606902'
p346
asS'1722808'
p347
(lp348
S'1606902'
p349
asS'1559282'
p350
(lp351
S'1606902'
p352
asS'499285'
p353
(lp354
S'1774996'
p355
asS'1428455'
p356
(lp357
S'1775045'
p358
asS'2010605'
p359
(lp360
S'1606717'
p361
aS'1606902'
p362
aS'1760400'
p363
aS'2018059'
p364
aS'1760405'
p365
aS'2105468'
p366
aS'1902321'
p367
aS'218438'
p368
aS'1837210'
p369
aS'662960'
p370
aS'1774452'
p371
aS'2105603'
p372
asS'944984'
p373
(lp374
S'1606902'
p375
asS'1690385'
p376
(lp377
S'1606902'
p378
asS'1678495'
p379
(lp380
S'1606717'
p381
aS'1774594'
p382
asS'1817059'
p383
(lp384
S'1606902'
p385
asS'1999410'
p386
(lp387
S'1606902'
p388
asS'1449534'
p389
(lp390
S'1774594'
p391
aS'1774539'
p392
aS'1774713'
p393
aS'1775076'
p394
aS'544479'
p395
aS'2224167'
p396
aS'709795'
p397
aS'1775040'
p398
asS'269726'
p399
(lp400
S'329662'
p401
aS'461710'
p402
aS'713240'
p403
aS'586592'
p404
aS'1760381'
p405
asS'1581752'
p406
(lp407
S'1606902'
p408
asS'182114'
p409
(lp410
S'647356'
p411
asS'2067359'
p412
(lp413
S'1606902'
p414
asS'1714768'
p415
(lp416
S'1606902'
p417
asS'202365'
p418
(lp419
S'1606902'
p420
aS'1775011'
p421
asS'1606823'
p422
(lp423
S'1954203'
p424
asS'727605'
p425
(lp426
S'2335873'
p427
aS'1760400'
p428
aS'1606610'
p429
aS'930749'
p430
aS'428085'
p431
aS'1774462'
p432
aS'1775098'
p433
aS'754522'
p434
aS'1606717'
p435
aS'173758'
p436
aS'1606902'
p437
asS'806280'
p438
(lp439
S'1606902'
p440
asS'1116679'
p441
(lp442
S'1606902'
p443
asS'1222128'
p444
(lp445
S'1606902'
p446
aS'299289'
p447
aS'1606717'
p448
asS'289165'
p449
(lp450
S'436442'
p451
aS'1606717'
p452
aS'1774536'
p453
aS'502744'
p454
asS'694427'
p455
(lp456
S'1606902'
p457
asS'1166534'
p458
(lp459
S'1774717'
p460
asS'721398'
p461
(lp462
S'1774505'
p463
aS'647356'
p464
aS'1606902'
p465
aS'1760400'
p466
asS'160070'
p467
(lp468
S'1606717'
p469
asS'2019812'
p470
(lp471
S'1774954'
p472
asS'693734'
p473
(lp474
S'1775045'
p475
asS'1584141'
p476
(lp477
S'1606902'
p478
aS'1774482'
p479
asS'1854214'
p480
(lp481
S'647356'
p482
asS'335609'
p483
(lp484
S'1775028'
p485
asS'1731373'
p486
(lp487
S'1606717'
p488
asS'242147'
p489
(lp490
S'2105514'
p491
asS'795928'
p492
(lp493
S'647356'
p494
aS'1774684'
p495
aS'1774462'
p496
aS'1760402'
p497
aS'1774594'
p498
aS'727272'
p499
aS'704241'
p500
aS'1870054'
p501
aS'1774595'
p502
aS'1774461'
p503
aS'1774649'
p504
aS'1760376'
p505
aS'1774797'
p506
aS'1774862'
p507
asS'1434094'
p508
(lp509
S'1606902'
p510
aS'754522'
p511
aS'1837210'
p512
aS'1774996'
p513
aS'2105598'
p514
aS'1760350'
p515
aS'1774452'
p516
aS'1774717'
p517
asS'1303766'
p518
(lp519
S'1675399'
p520
aS'622503'
p521
asS'148893'
p522
(lp523
S'1606717'
p524
asS'1485064'
p525
(lp526
S'1606902'
p527
aS'1606717'
p528
asS'1095662'
p529
(lp530
S'674753'
p531
aS'1774684'
p532
asS'1320380'
p533
(lp534
S'458026'
p535
asS'517751'
p536
(lp537
S'1606902'
p538
asS'1848542'
p539
(lp540
S'1774546'
p541
asS'1151321'
p542
(lp543
S'1606902'
p544
aS'1606717'
p545
asS'1930643'
p546
(lp547
S'1606717'
p548
aS'1774520'
p549
aS'2393452'
p550
aS'1774706'
p551
aS'2105598'
p552
asS'1459156'
p553
(lp554
S'1774458'
p555
asS'126261'
p556
(lp557
S'1760350'
p558
aS'2105482'
p559
asS'819593'
p560
(lp561
S'2105603'
p562
aS'1775076'
p563
aS'1386531'
p564
aS'1774684'
p565
aS'622503'
p566
asS'1146551'
p567
(lp568
S'713228'
p569
asS'1315241'
p570
(lp571
S'713248'
p572
aS'665932'
p573
aS'2105486'
p574
asS'1310053'
p575
(lp576
S'1606609'
p577
aS'1928678'
p578
asS'107092'
p579
(lp580
S'647356'
p581
asS'1427698'
p582
(lp583
S'1606609'
p584
asS'294801'
p585
(lp586
S'1775045'
p587
asS'952724'
p588
(lp589
S'1606902'
p590
asS'1724752'
p591
(lp592
S'1775044'
p593
aS'1774967'
p594
aS'1774684'
p595
asS'1315409'
p596
(lp597
S'1606902'
p598
asS'1724972'
p599
(lp600
S'1775042'
p601
asS'999720'
p602
(lp603
S'1606717'
p604
asS'2088953'
p605
(lp606
S'1606609'
p607
asS'813631'
p608
(lp609
S'1606902'
p610
aS'1928678'
p611
aS'930749'
p612
aS'1606609'
p613
aS'1775044'
p614
aS'2105598'
p615
aS'1606717'
p616
aS'1095970'
p617
aS'1774539'
p618
aS'338764'
p619
asS'1591365'
p620
(lp621
S'1837210'
p622
asS'764427'
p623
(lp624
S'1606902'
p625
asS'1773542'
p626
(lp627
S'1606902'
p628
asS'1694675'
p629
(lp630
S'1606552'
p631
aS'647356'
p632
aS'1606717'
p633
asS'1086625'
p634
(lp635
S'1606717'
p636
aS'1606902'
p637
asS'1655309'
p638
(lp639
S'1774594'
p640
asS'472301'
p641
(lp642
S'1606902'
p643
asS'1864175'
p644
(lp645
S'1606717'
p646
asS'1864171'
p647
(lp648
S'1606902'
p649
asS'1912048'
p650
(lp651
S'1606902'
p652
asS'422895'
p653
(lp654
S'2072200'
p655
asS'425463'
p656
(lp657
S'1774913'
p658
asS'1743935'
p659
(lp660
S'1774684'
p661
asS'1322157'
p662
(lp663
S'1774862'
p664
asS'771882'
p665
(lp666
S'1606902'
p667
asS'642129'
p668
(lp669
S'218438'
p670
aS'1774550'
p671
asS'555399'
p672
(lp673
S'1774967'
p674
aS'1419930'
p675
aS'1775076'
p676
asS'1007109'
p677
(lp678
S'1606717'
p679
aS'532897'
p680
asS'266057'
p681
(lp682
S'1606902'
p683
asS'917775'
p684
(lp685
S'1675399'
p686
asS'706462'
p687
(lp688
S'1774717'
p689
aS'647356'
p690
asS'1430382'
p691
(lp692
S'1290320'
p693
asS'1167916'
p694
(lp695
S'1606902'
p696
asS'431392'
p697
(lp698
S'1606717'
p699
asS'1154529'
p700
(lp701
S'2393452'
p702
aS'1774797'
p703
aS'1774687'
p704
asS'807330'
p705
(lp706
S'1606902'
p707
aS'1606717'
p708
aS'2105599'
p709
asS'515277'
p710
(lp711
S'1775024'
p712
asS'1937656'
p713
(lp714
S'1760320'
p715
asS'1589654'
p716
(lp717
S'1774684'
p718
asS'1036391'
p719
(lp720
S'727272'
p721
aS'1774505'
p722
aS'1774848'
p723
aS'925715'
p724
aS'713254'
p725
aS'2335872'
p726
aS'1606607'
p727
aS'1121038'
p728
aS'1775006'
p729
aS'1774851'
p730
aS'1412065'
p731
aS'1774686'
p732
aS'1774595'
p733
aS'1775045'
p734
aS'2105603'
p735
aS'436442'
p736
asS'277016'
p737
(lp738
S'1774717'
p739
asS'697433'
p740
(lp741
S'1606902'
p742
asS'440384'
p743
(lp744
S'1606717'
p745
asS'1982817'
p746
(lp747
S'754522'
p748
aS'436442'
p749
aS'713254'
p750
aS'713293'
p751
asS'1603163'
p752
(lp753
S'647356'
p754
aS'2188303'
p755
asS'1165990'
p756
(lp757
S'1606902'
p758
aS'1774509'
p759
asS'1675830'
p760
(lp761
S'647356'
p762
aS'1775011'
p763
aS'1928655'
p764
aS'1774454'
p765
aS'1774707'
p766
aS'1775001'
p767
aS'1775024'
p768
aS'1760320'
p769
aS'1606609'
p770
aS'1774534'
p771
aS'1774594'
p772
aS'1775084'
p773
aS'2335873'
p774
aS'714771'
p775
aS'520759'
p776
aS'1774929'
p777
aS'1774999'
p778
aS'1760398'
p779
aS'1774687'
p780
aS'437017'
p781
aS'1774365'
p782
aS'713260'
p783
aS'656631'
p784
aS'727272'
p785
aS'1774969'
p786
aS'713240'
p787
aS'552511'
p788
aS'1774453'
p789
aS'2105489'
p790
aS'516756'
p791
aS'1774722'
p792
aS'2105464'
p793
aS'1760338'
p794
aS'378617'
p795
aS'1774934'
p796
aS'1760354'
p797
aS'1774683'
p798
aS'2105599'
p799
aS'1774502'
p800
aS'1774539'
p801
aS'1774878'
p802
aS'1847735'
p803
aS'513098'
p804
aS'1606608'
p805
aS'713225'
p806
aS'1638658'
p807
aS'1760308'
p808
aS'694649'
p809
aS'2105453'
p810
aS'1774789'
p811
aS'930749'
p812
aS'2105482'
p813
aS'1774799'
p814
aS'731434'
p815
aS'1349990'
p816
aS'1774371'
p817
aS'1775042'
p818
aS'727232'
p819
asS'1976899'
p820
(lp821
S'713299'
p822
asS'2096132'
p823
(lp824
S'1774492'
p825
asS'1557651'
p826
(lp827
S'1606717'
p828
asS'1074151'
p829
(lp830
S'1606574'
p831
asS'1164660'
p832
(lp833
S'1760388'
p834
asS'1343543'
p835
(lp836
S'1606902'
p837
asS'406961'
p838
(lp839
S'1606717'
p840
asS'371832'
p841
(lp842
S'1774717'
p843
asS'609275'
p844
(lp845
S'1606902'
p846
aS'1775024'
p847
aS'140394'
p848
aS'1774505'
p849
aS'218438'
p850
aS'1606717'
p851
aS'167614'
p852
aS'1775028'
p853
aS'592273'
p854
asS'948503'
p855
(lp856
S'1606902'
p857
asS'877945'
p858
(lp859
S'1606902'
p860
asS'1642233'
p861
(lp862
S'1606717'
p863
aS'1606902'
p864
asS'1768937'
p865
(lp866
S'1606717'
p867
aS'1606902'
p868
asS'1536952'
p869
(lp870
S'2008547'
p871
aS'1606610'
p872
asS'1255824'
p873
(lp874
S'1606717'
p875
aS'572238'
p876
asS'2034596'
p877
(lp878
S'1606902'
p879
asS'328269'
p880
(lp881
S'1606902'
p882
asS'1526061'
p883
(lp884
S'1606717'
p885
asS'1361905'
p886
(lp887
S'1606902'
p888
asS'810083'
p889
(lp890
S'1606902'
p891
asS'235820'
p892
(lp893
S'1606902'
p894
asS'1221113'
p895
(lp896
S'713254'
p897
aS'1760399'
p898
asS'1431702'
p899
(lp900
S'1774862'
p901
asS'1948555'
p902
(lp903
S'586592'
p904
asS'1251724'
p905
(lp906
S'2188303'
p907
asS'753143'
p908
(lp909
S'2105486'
p910
asS'1734689'
p911
(lp912
S'193952'
p913
asS'211543'
p914
(lp915
S'1606717'
p916
asS'1173798'
p917
(lp918
S'1606609'
p919
asS'1692199'
p920
(lp921
S'1775024'
p922
asS'1116840'
p923
(lp924
S'1606902'
p925
asS'459273'
p926
(lp927
S'1775085'
p928
asS'192439'
p929
(lp930
S'1928655'
p931
aS'837776'
p932
aS'1837210'
p933
aS'1954203'
p934
aS'502744'
p935
asS'589560'
p936
(lp937
S'1606902'
p938
asS'1023434'
p939
(lp940
S'1606902'
p941
aS'2105482'
p942
aS'1760350'
p943
asS'884038'
p944
(lp945
S'1606717'
p946
aS'1606902'
p947
aS'1760320'
p948
aS'1606523'
p949
asS'1484250'
p950
(lp951
S'1774707'
p952
aS'1774509'
p953
aS'1775025'
p954
aS'572691'
p955
aS'713227'
p956
aS'727272'
p957
aS'1774952'
p958
aS'731434'
p959
aS'1606717'
p960
aS'1775040'
p961
asS'467084'
p962
(lp963
S'646592'
p964
aS'724706'
p965
aS'665932'
p966
aS'2105579'
p967
aS'687441'
p968
aS'1774505'
p969
aS'1774686'
p970
aS'930749'
p971
aS'1760376'
p972
aS'1775076'
p973
aS'683822'
p974
aS'1606902'
p975
aS'1774923'
p976
aS'2008547'
p977
aS'1774717'
p978
aS'1774972'
p979
aS'1774461'
p980
aS'727272'
p981
aS'1928671'
p982
aS'2105466'
p983
aS'1775040'
p984
aS'1774706'
p985
aS'2335872'
p986
aS'724489'
p987
aS'827735'
p988
aS'1774925'
p989
aS'731434'
p990
aS'1760350'
p991
asS'1620492'
p992
(lp993
S'475571'
p994
asS'1620365'
p995
(lp996
S'1774963'
p997
asS'1978100'
p998
(lp999
S'2105476'
p1000
asS'1899094'
p1001
(lp1002
S'1774952'
p1003
asS'798029'
p1004
(lp1005
S'1606902'
p1006
asS'1128515'
p1007
(lp1008
S'1606902'
p1009
asS'826118'
p1010
(lp1011
S'1774595'
p1012
asS'725836'
p1013
(lp1014
S'1606902'
p1015
aS'1760349'
p1016
aS'1775042'
p1017
aS'724489'
p1018
aS'665932'
p1019
aS'713233'
p1020
aS'572220'
p1021
aS'713227'
p1022
aS'577322'
p1023
aS'1606610'
p1024
aS'987446'
p1025
aS'683822'
p1026
aS'713228'
p1027
aS'2105464'
p1028
aS'2163868'
p1029
aS'1606717'
p1030
asS'1236819'
p1031
(lp1032
S'1760402'
p1033
asS'641542'
p1034
(lp1035
S'1606902'
p1036
asS'1071332'
p1037
(lp1038
S'713250'
p1039
asS'2076485'
p1040
(lp1041
S'1606717'
p1042
asS'1287293'
p1043
(lp1044
S'1606902'
p1045
asS'1695275'
p1046
(lp1047
S'1774862'
p1048
asS'1704743'
p1049
(lp1050
S'127164'
p1051
asS'1290832'
p1052
(lp1053
S'458026'
p1054
aS'1775024'
p1055
asS'1769458'
p1056
(lp1057
S'1606717'
p1058
asS'1892328'
p1059
(lp1060
S'1606902'
p1061
asS'636459'
p1062
(lp1063
S'1774505'
p1064
asS'1764294'
p1065
(lp1066
S'1760388'
p1067
aS'1837210'
p1068
aS'1774999'
p1069
aS'2169800'
p1070
aS'1606515'
p1071
aS'2105484'
p1072
aS'1775076'
p1073
aS'1774613'
p1074
aS'1928655'
p1075
aS'2008547'
p1076
aS'727272'
p1077
aS'558976'
p1078
aS'615465'
p1079
aS'803741'
p1080
aS'1606717'
p1081
aS'1774952'
p1082
aS'131665'
p1083
aS'1774453'
p1084
aS'1774684'
p1085
aS'1394821'
p1086
aS'1760377'
p1087
aS'713250'
p1088
aS'1774797'
p1089
aS'1774816'
p1090
aS'1774963'
p1091
aS'731434'
p1092
aS'1231352'
p1093
aS'1606688'
p1094
aS'2280082'
p1095
aS'1774687'
p1096
aS'1775025'
p1097
aS'1774692'
p1098
aS'300076'
p1099
aS'630683'
p1100
aS'1760363'
p1101
aS'1760410'
p1102
aS'1775011'
p1103
aS'1774706'
p1104
aS'562574'
p1105
aS'1213266'
p1106
aS'172508'
p1107
aS'713228'
p1108
aS'1774789'
p1109
aS'1774960'
p1110
aS'2393452'
p1111
aS'563514'
p1112
aS'2188303'
p1113
aS'713254'
p1114
asS'1869474'
p1115
(lp1116
S'1774963'
p1117
asS'1876617'
p1118
(lp1119
S'1606902'
p1120
asS'1554874'
p1121
(lp1122
S'1774550'
p1123
aS'562574'
p1124
aS'1606609'
p1125
aS'727272'
p1126
asS'1485783'
p1127
(lp1128
S'1606902'
p1129
asS'1279864'
p1130
(lp1131
S'1774862'
p1132
asS'288452'
p1133
(lp1134
S'647356'
p1135
asS'1038728'
p1136
(lp1137
S'1774539'
p1138
aS'1774717'
p1139
aS'1760350'
p1140
aS'1774595'
p1141
aS'1774505'
p1142
aS'1774780'
p1143
asS'717525'
p1144
(lp1145
S'436442'
p1146
asS'187086'
p1147
(lp1148
S'2008547'
p1149
aS'1760654'
p1150
aS'131665'
p1151
aS'633220'
p1152
aS'176061'
p1153
aS'569731'
p1154
aS'594200'
p1155
aS'401397'
p1156
aS'623203'
p1157
aS'135294'
p1158
aS'346092'
p1159
aS'1774969'
p1160
aS'562574'
p1161
aS'1259766'
p1162
aS'1760386'
p1163
aS'1760373'
p1164
aS'695387'
p1165
aS'250533'
p1166
aS'312101'
p1167
aS'867199'
p1168
aS'329662'
p1169
aS'927900'
p1170
aS'694649'
p1171
aS'1760400'
p1172
aS'1774776'
p1173
aS'630111'
p1174
aS'1774722'
p1175
asS'1354407'
p1176
(lp1177
S'1606902'
p1178
asS'747204'
p1179
(lp1180
S'1774963'
p1181
asS'634006'
p1182
(lp1183
S'1606902'
p1184
asS'1501334'
p1185
(lp1186
S'1606902'
p1187
aS'2010338'
p1188
aS'2188303'
p1189
aS'2105486'
p1190
asS'924939'
p1191
(lp1192
S'1606902'
p1193
aS'683822'
p1194
asS'1355162'
p1195
(lp1196
S'1606902'
p1197
asS'1665395'
p1198
(lp1199
S'1606717'
p1200
asS'573442'
p1201
(lp1202
S'1606902'
p1203
aS'727272'
p1204
aS'1775024'
p1205
aS'731389'
p1206
asS'362594'
p1207
(lp1208
S'1606902'
p1209
asS'2037464'
p1210
(lp1211
S'1606902'
p1212
asS'825474'
p1213
(lp1214
S'1606902'
p1215
aS'674753'
p1216
aS'713248'
p1217
aS'559957'
p1218
aS'1760338'
p1219
aS'629574'
p1220
aS'1606608'
p1221
aS'731389'
p1222
aS'2105489'
p1223
aS'754522'
p1224
asS'1336655'
p1225
(lp1226
S'674753'
p1227
asS'689638'
p1228
(lp1229
S'1606902'
p1230
asS'838462'
p1231
(lp1232
S'1837210'
p1233
aS'172508'
p1234
aS'1774687'
p1235
aS'1760388'
p1236
aS'647356'
p1237
aS'1774969'
p1238
aS'1606717'
p1239
aS'1774862'
p1240
aS'1774505'
p1241
aS'1774718'
p1242
aS'1775024'
p1243
asS'674889'
p1244
(lp1245
S'1774536'
p1246
aS'1774717'
p1247
asS'199823'
p1248
(lp1249
S'1606902'
p1250
aS'1774458'
p1251
asS'625657'
p1252
(lp1253
S'1775042'
p1254
aS'1774862'
p1255
aS'437017'
p1256
asS'1243369'
p1257
(lp1258
S'1606574'
p1259
asS'1428200'
p1260
(lp1261
S'218438'
p1262
asS'1612518'
p1263
(lp1264
S'1606717'
p1265
asS'1748611'
p1266
(lp1267
S'478929'
p1268
aS'628623'
p1269
aS'754522'
p1270
asS'489416'
p1271
(lp1272
S'1606902'
p1273
asS'1070464'
p1274
(lp1275
S'1606902'
p1276
aS'1606609'
p1277
asS'2003205'
p1278
(lp1279
S'1774963'
p1280
asS'1346399'
p1281
(lp1282
S'1606717'
p1283
aS'1606902'
p1284
asS'231619'
p1285
(lp1286
S'218438'
p1287
asS'1718704'
p1288
(lp1289
S'1775011'
p1290
asS'2040389'
p1291
(lp1292
S'1606902'
p1293
asS'1193968'
p1294
(lp1295
S'2105598'
p1296
asS'1743947'
p1297
(lp1298
S'1606574'
p1299
aS'1774684'
p1300
asS'614662'
p1301
(lp1302
S'1606552'
p1303
asS'1629321'
p1304
(lp1305
S'1606902'
p1306
asS'1531866'
p1307
(lp1308
S'1760642'
p1309
asS'1007882'
p1310
(lp1311
S'1606717'
p1312
asS'1755759'
p1313
(lp1314
S'1606717'
p1315
asS'425259'
p1316
(lp1317
S'647356'
p1318
aS'1419930'
p1319
aS'458026'
p1320
asS'1014873'
p1321
(lp1322
S'2105599'
p1323
aS'1774505'
p1324
aS'552675'
p1325
asS'1518169'
p1326
(lp1327
S'1675399'
p1328
aS'1774717'
p1329
asS'1765579'
p1330
(lp1331
S'2012081'
p1332
asS'366771'
p1333
(lp1334
S'1606902'
p1335
aS'1954203'
p1336
aS'1774963'
p1337
aS'458026'
p1338
asS'372785'
p1339
(lp1340
S'1606902'
p1341
aS'1606717'
p1342
asS'1679917'
p1343
(lp1344
S'1606902'
p1345
aS'1606717'
p1346
aS'288767'
p1347
aS'1774963'
p1348
aS'1774692'
p1349
aS'1774862'
p1350
asS'2042604'
p1351
(lp1352
S'290927'
p1353
asS'1904188'
p1354
(lp1355
S'1606902'
p1356
aS'1606717'
p1357
aS'218438'
p1358
asS'642205'
p1359
(lp1360
S'1606902'
p1361
asS'1451442'
p1362
(lp1363
S'1606902'
p1364
asS'1474072'
p1365
(lp1366
S'1606902'
p1367
aS'1760376'
p1368
aS'1606717'
p1369
asS'1156224'
p1370
(lp1371
S'1606609'
p1372
aS'727272'
p1373
aS'549866'
p1374
aS'428085'
p1375
aS'506181'
p1376
aS'1774963'
p1377
aS'647356'
p1378
aS'2224167'
p1379
aS'1954203'
p1380
aS'1606608'
p1381
aS'1606552'
p1382
asS'339990'
p1383
(lp1384
S'1606902'
p1385
aS'1774954'
p1386
aS'1606609'
p1387
asS'1013909'
p1388
(lp1389
S'754522'
p1390
asS'240018'
p1391
(lp1392
S'2105482'
p1393
asS'366172'
p1394
(lp1395
S'1606902'
p1396
asS'576662'
p1397
(lp1398
S'1775024'
p1399
asS'1765997'
p1400
(lp1401
S'1760402'
p1402
aS'1774713'
p1403
aS'713254'
p1404
aS'436442'
p1405
aS'1760388'
p1406
asS'835053'
p1407
(lp1408
S'1606902'
p1409
asS'247661'
p1410
(lp1411
S'1606902'
p1412
asS'1152487'
p1413
(lp1414
S'539162'
p1415
aS'1606902'
p1416
aS'1606717'
p1417
aS'1775011'
p1418
aS'1774613'
p1419
asS'1697233'
p1420
(lp1421
S'1774963'
p1422
asS'525986'
p1423
(lp1424
S'1606902'
p1425
aS'713250'
p1426
asS'261871'
p1427
(lp1428
S'2012081'
p1429
asS'872639'
p1430
(lp1431
S'2224167'
p1432
aS'2105561'
p1433
aS'713240'
p1434
asS'1954640'
p1435
(lp1436
S'1760410'
p1437
aS'1606592'
p1438
aS'1760386'
p1439
aS'1760400'
p1440
aS'428085'
p1441
aS'1606607'
p1442
aS'665932'
p1443
aS'1774540'
p1444
aS'1774594'
p1445
aS'1775000'
p1446
aS'1774522'
p1447
aS'2105580'
p1448
aS'2105561'
p1449
aS'1349990'
p1450
aS'1774452'
p1451
aS'401397'
p1452
aS'713229'
p1453
aS'1760406'
p1454
aS'1760356'
p1455
aS'608014'
p1456
aS'639313'
p1457
aS'1606573'
p1458
aS'713246'
p1459
asS'579778'
p1460
(lp1461
S'575662'
p1462
asS'443942'
p1463
(lp1464
S'1606902'
p1465
aS'1774816'
p1466
aS'1774684'
p1467
aS'1775024'
p1468
aS'724489'
p1469
aS'1774505'
p1470
aS'218438'
p1471
asS'732127'
p1472
(lp1473
S'1760350'
p1474
asS'348629'
p1475
(lp1476
S'1606609'
p1477
asS'1427194'
p1478
(lp1479
S'218438'
p1480
aS'1774963'
p1481
asS'1712748'
p1482
(lp1483
S'1774717'
p1484
asS'1079301'
p1485
(lp1486
S'1606902'
p1487
asS'1782431'
p1488
(lp1489
S'1606902'
p1490
asS'791584'
p1491
(lp1492
S'647356'
p1493
asS'980335'
p1494
(lp1495
S'1774594'
p1496
asS'1540221'
p1497
(lp1498
S'1606902'
p1499
asS'940586'
p1500
(lp1501
S'731389'
p1502
aS'647356'
p1503
aS'1606608'
p1504
aS'1760396'
p1505
aS'530619'
p1506
aS'627961'
p1507
aS'1775011'
p1508
aS'1606609'
p1509
aS'1774713'
p1510
aS'713254'
p1511
aS'2105465'
p1512
aS'683822'
p1513
aS'2105489'
p1514
aS'1760403'
p1515
aS'1760338'
p1516
aS'1774594'
p1517
asS'118318'
p1518
(lp1519
S'1606902'
p1520
aS'1606515'
p1521
aS'1672667'
p1522
aS'594200'
p1523
asS'340703'
p1524
(lp1525
S'1606902'
p1526
aS'1021144'
p1527
aS'2105349'
p1528
aS'2105575'
p1529
aS'1760381'
p1530
aS'229937'
p1531
aS'441554'
p1532
aS'704241'
p1533
aS'1928655'
p1534
aS'621735'
p1535
aS'627961'
p1536
aS'426750'
p1537
aS'1774603'
p1538
aS'2105486'
p1539
aS'193952'
p1540
aS'592273'
p1541
aS'1774848'
p1542
aS'491696'
p1543
aS'539162'
p1544
aS'249736'
p1545
aS'343522'
p1546
aS'778749'
p1547
aS'712933'
p1548
aS'1775076'
p1549
aS'559957'
p1550
aS'1774595'
p1551
aS'1774649'
p1552
aS'1774520'
p1553
aS'526222'
p1554
aS'1349990'
p1555
aS'1774505'
p1556
aS'218438'
p1557
aS'461710'
p1558
aS'1775006'
p1559
aS'2105467'
p1560
aS'124087'
p1561
aS'1386531'
p1562
aS'1760360'
p1563
aS'1774454'
p1564
aS'1775040'
p1565
aS'725379'
p1566
aS'1774536'
p1567
aS'1774684'
p1568
aS'1774594'
p1569
aS'1606592'
p1570
aS'1638658'
p1571
aS'1954203'
p1572
aS'1244528'
p1573
aS'1774686'
p1574
aS'1774722'
p1575
aS'741909'
p1576
aS'1774957'
p1577
aS'1775011'
p1578
aS'1760301'
p1579
aS'549866'
p1580
aS'2105466'
p1581
aS'2224167'
p1582
aS'760113'
p1583
aS'1394821'
p1584
aS'167614'
p1585
aS'1760642'
p1586
aS'1775001'
p1587
aS'2393452'
p1588
aS'1774462'
p1589
aS'290927'
p1590
aS'172508'
p1591
aS'1775009'
p1592
aS'2188303'
p1593
aS'1760326'
p1594
aS'1760353'
p1595
aS'1774705'
p1596
aS'1774482'
p1597
aS'504783'
p1598
aS'2105580'
p1599
aS'1458847'
p1600
aS'2105529'
p1601
aS'1586439'
p1602
aS'1774796'
p1603
aS'1606717'
p1604
aS'1775013'
p1605
aS'2012081'
p1606
aS'2105722'
p1607
aS'726949'
p1608
aS'1774687'
p1609
aS'1774692'
p1610
aS'2105468'
p1611
aS'1774539'
p1612
aS'1774706'
p1613
aS'2105603'
p1614
aS'1760361'
p1615
aS'1774969'
p1616
aS'1775098'
p1617
aS'1760410'
p1618
aS'462104'
p1619
aS'1774952'
p1620
aS'118180'
p1621
aS'1606523'
p1622
aS'1774789'
p1623
aS'1760405'
p1624
aS'431499'
p1625
aS'561053'
p1626
aS'1086517'
p1627
aS'1505267'
p1628
aS'867199'
p1629
aS'100337'
p1630
aS'1774816'
p1631
aS'647225'
p1632
aS'1928724'
p1633
aS'743511'
p1634
aS'1213266'
p1635
aS'1606540'
p1636
aS'1774868'
p1637
aS'572220'
p1638
aS'1774461'
p1639
aS'1775042'
p1640
aS'693635'
p1641
aS'1774960'
p1642
aS'621444'
p1643
aS'1774452'
p1644
aS'1775029'
p1645
aS'1774776'
p1646
aS'2105455'
p1647
aS'291065'
p1648
aS'1774954'
p1649
aS'2105582'
p1650
aS'623203'
p1651
aS'1775089'
p1652
asS'2068121'
p1653
(lp1654
S'1774536'
p1655
aS'727272'
p1656
asS'820221'
p1657
(lp1658
S'1606902'
p1659
asS'1859510'
p1660
(lp1661
S'1606717'
p1662
asS'629550'
p1663
(lp1664
S'1606902'
p1665
asS'764850'
p1666
(lp1667
S'1606717'
p1668
asS'927737'
p1669
(lp1670
S'2105468'
p1671
asS'1264645'
p1672
(lp1673
S'1606902'
p1674
asS'454489'
p1675
(lp1676
S'724706'
p1677
asS'543302'
p1678
(lp1679
S'1760400'
p1680
aS'694649'
p1681
aS'1606717'
p1682
aS'458026'
p1683
asS'1965418'
p1684
(lp1685
S'754522'
p1686
asS'2018945'
p1687
(lp1688
S'458026'
p1689
asS'1128614'
p1690
(lp1691
S'2012081'
p1692
asS'589795'
p1693
(lp1694
S'1606902'
p1695
asS'790182'
p1696
(lp1697
S'1606717'
p1698
asS'479232'
p1699
(lp1700
S'1774452'
p1701
asS'414942'
p1702
(lp1703
S'875014'
p1704
asS'1278954'
p1705
(lp1706
S'1774684'
p1707
asS'513677'
p1708
(lp1709
S'1606902'
p1710
asS'1999438'
p1711
(lp1712
S'1774963'
p1713
asS'399555'
p1714
(lp1715
S'1606902'
p1716
asS'1364341'
p1717
(lp1718
S'1606902'
p1719
asS'1953918'
p1720
(lp1721
S'1775003'
p1722
aS'458026'
p1723
asS'818373'
p1724
(lp1725
S'1606902'
p1726
asS'157653'
p1727
(lp1728
S'1606902'
p1729
asS'1574930'
p1730
(lp1731
S'1606902'
p1732
aS'1774684'
p1733
aS'1760350'
p1734
aS'529228'
p1735
aS'1774954'
p1736
asS'1326418'
p1737
(lp1738
S'1606902'
p1739
aS'1606717'
p1740
aS'2105598'
p1741
asS'920086'
p1742
(lp1743
S'1606902'
p1744
asS'1480306'
p1745
(lp1746
S'224714'
p1747
asS'960910'
p1748
(lp1749
S'1606717'
p1750
asS'1961235'
p1751
(lp1752
S'1760399'
p1753
asS'415701'
p1754
(lp1755
S'1606902'
p1756
asS'2006434'
p1757
(lp1758
S'122444'
p1759
asS'1343815'
p1760
(lp1761
S'694649'
p1762
asS'516310'
p1763
(lp1764
S'1760350'
p1765
asS'178270'
p1766
(lp1767
S'2105598'
p1768
asS'731022'
p1769
(lp1770
S'1606902'
p1771
asS'1725775'
p1772
(lp1773
S'1606717'
p1774
aS'1606902'
p1775
asS'1139461'
p1776
(lp1777
S'1606902'
p1778
asS'1501885'
p1779
(lp1780
S'1774722'
p1781
asS'935151'
p1782
(lp1783
S'1606902'
p1784
aS'1837210'
p1785
aS'1870054'
p1786
asS'1461141'
p1787
(lp1788
S'1606902'
p1789
asS'1790333'
p1790
(lp1791
S'1606902'
p1792
asS'1962836'
p1793
(lp1794
S'1774713'
p1795
aS'2105349'
p1796
aS'1774452'
p1797
aS'1760402'
p1798
aS'1774684'
p1799
aS'1928655'
p1800
aS'1760388'
p1801
aS'1774717'
p1802
aS'539162'
p1803
aS'1775076'
p1804
aS'1837210'
p1805
aS'2105603'
p1806
aS'1774705'
p1807
aS'1606515'
p1808
aS'1349990'
p1809
aS'1775040'
p1810
aS'1774533'
p1811
aS'1928678'
p1812
aS'1760396'
p1813
aS'1774687'
p1814
aS'1774789'
p1815
aS'1774862'
p1816
aS'249736'
p1817
aS'1774692'
p1818
aS'1606574'
p1819
aS'218438'
p1820
aS'1774952'
p1821
aS'1870054'
p1822
aS'727272'
p1823
aS'1774796'
p1824
aS'1775011'
p1825
aS'713260'
p1826
aS'1774706'
p1827
aS'1606596'
p1828
aS'458026'
p1829
asS'108441'
p1830
(lp1831
S'1606717'
p1832
asS'1730572'
p1833
(lp1834
S'218438'
p1835
asS'1561172'
p1836
(lp1837
S'682877'
p1838
asS'2083569'
p1839
(lp1840
S'1606902'
p1841
aS'1606717'
p1842
asS'302186'
p1843
(lp1844
S'1606717'
p1845
asS'186703'
p1846
(lp1847
S'1774505'
p1848
asS'1947680'
p1849
(lp1850
S'1774464'
p1851
aS'2335873'
p1852
aS'713248'
p1853
aS'1606902'
p1854
aS'2105532'
p1855
aS'624922'
p1856
aS'299289'
p1857
aS'1586439'
p1858
aS'1835624'
p1859
aS'1606559'
p1860
aS'640892'
p1861
aS'2105599'
p1862
aS'436442'
p1863
aS'1760401'
p1864
aS'665932'
p1865
aS'713227'
p1866
aS'725379'
p1867
aS'1775014'
p1868
aS'867199'
p1869
aS'549649'
p1870
aS'908591'
p1871
aS'1606600'
p1872
aS'627961'
p1873
aS'786313'
p1874
aS'2280082'
p1875
aS'1774603'
p1876
aS'1774973'
p1877
aS'107016'
p1878
aS'629574'
p1879
aS'1760308'
p1880
aS'1774946'
p1881
aS'2105529'
p1882
aS'1774584'
p1883
aS'2105468'
p1884
aS'1775098'
p1885
aS'1606523'
p1886
aS'2105575'
p1887
aS'2105786'
p1888
aS'1760363'
p1889
aS'1213266'
p1890
aS'1775057'
p1891
aS'549866'
p1892
aS'1774686'
p1893
aS'1458847'
p1894
aS'1774960'
p1895
aS'530619'
p1896
aS'2105550'
p1897
aS'763886'
p1898
asS'928365'
p1899
(lp1900
S'1606902'
p1901
asS'1803667'
p1902
(lp1903
S'1606902'
p1904
aS'1775024'
p1905
asS'2027694'
p1906
(lp1907
S'1606902'
p1908
asS'2038868'
p1909
(lp1910
S'713250'
p1911
aS'1775011'
p1912
aS'1675399'
p1913
aS'2105482'
p1914
aS'1760402'
p1915
aS'647356'
p1916
aS'562574'
p1917
aS'1606609'
p1918
aS'2105598'
p1919
aS'1774595'
p1920
aS'1775045'
p1921
asS'1684751'
p1922
(lp1923
S'647356'
p1924
asS'1315641'
p1925
(lp1926
S'1837210'
p1927
asS'1614118'
p1928
(lp1929
S'1606902'
p1930
aS'1774463'
p1931
aS'163267'
p1932
aS'1606610'
p1933
aS'1774848'
p1934
aS'502744'
p1935
asS'515832'
p1936
(lp1937
S'1606902'
p1938
aS'1774963'
p1939
asS'1951519'
p1940
(lp1941
S'1606902'
p1942
aS'1606609'
p1943
aS'727272'
p1944
aS'1606574'
p1945
aS'1775025'
p1946
aS'2224167'
p1947
aS'1774954'
p1948
asS'566095'
p1949
(lp1950
S'1419930'
p1951
asS'1444288'
p1952
(lp1953
S'1606902'
p1954
asS'1228966'
p1955
(lp1956
S'1606902'
p1957
asS'1011619'
p1958
(lp1959
S'1606902'
p1960
aS'1760349'
p1961
aS'163267'
p1962
aS'647356'
p1963
aS'2169800'
p1964
asS'465507'
p1965
(lp1966
S'1606902'
p1967
aS'1774505'
p1968
asS'1766264'
p1969
(lp1970
S'1606902'
p1971
asS'897331'
p1972
(lp1973
S'1606552'
p1974
aS'1760376'
p1975
aS'727272'
p1976
aS'1760399'
p1977
aS'2105599'
p1978
aS'1760401'
p1979
aS'2105603'
p1980
aS'549866'
p1981
aS'713240'
p1982
aS'1774603'
p1983
aS'575479'
p1984
aS'1606609'
p1985
aS'1606610'
p1986
aS'577316'
p1987
aS'140394'
p1988
aS'559957'
p1989
aS'112125'
p1990
aS'1001726'
p1991
aS'124087'
p1992
aS'725379'
p1993
aS'1606523'
p1994
aS'1775040'
p1995
aS'1774613'
p1996
aS'539162'
p1997
aS'563514'
p1998
aS'713229'
p1999
aS'1774960'
p2000
aS'425975'
p2001
aS'1791518'
p2002
aS'2105541'
p2003
asS'1178656'
p2004
(lp2005
S'682877'
p2006
asS'787631'
p2007
(lp2008
S'1606902'
p2009
asS'1533432'
p2010
(lp2011
S'1606902'
p2012
asS'959827'
p2013
(lp2014
S'1606717'
p2015
aS'754522'
p2016
asS'1271388'
p2017
(lp2018
S'1606902'
p2019
asS'1257921'
p2020
(lp2021
S'1775029'
p2022
asS'151367'
p2023
(lp2024
S'724706'
p2025
asS'862330'
p2026
(lp2027
S'1774770'
p2028
asS'216030'
p2029
(lp2030
S'218438'
p2031
asS'301517'
p2032
(lp2033
S'1760376'
p2034
asS'2012384'
p2035
(lp2036
S'1606609'
p2037
asS'1857604'
p2038
(lp2039
S'1606717'
p2040
aS'713254'
p2041
asS'463137'
p2042
(lp2043
S'713254'
p2044
asS'1974966'
p2045
(lp2046
S'1606902'
p2047
asS'1644308'
p2048
(lp2049
S'1870054'
p2050
aS'1675399'
p2051
aS'458026'
p2052
aS'1774594'
p2053
asS'1688041'
p2054
(lp2055
S'1606902'
p2056
asS'740585'
p2057
(lp2058
S'1606902'
p2059
asS'1434297'
p2060
(lp2061
S'1606902'
p2062
aS'2280082'
p2063
aS'2224167'
p2064
aS'1760350'
p2065
aS'563514'
p2066
aS'1606717'
p2067
aS'1774594'
p2068
aS'1775024'
p2069
aS'682877'
p2070
aS'1775011'
p2071
aS'1774706'
p2072
aS'1774952'
p2073
aS'1774505'
p2074
aS'1774684'
p2075
aS'1837210'
p2076
aS'1760338'
p2077
aS'1606515'
p2078
asS'1722763'
p2079
(lp2080
S'1774717'
p2081
aS'1775024'
p2082
asS'1227353'
p2083
(lp2084
S'1606902'
p2085
aS'1774963'
p2086
asS'1875852'
p2087
(lp2088
S'1837210'
p2089
asS'590603'
p2090
(lp2091
S'1775002'
p2092
aS'715470'
p2093
asS'463902'
p2094
(lp2095
S'1606902'
p2096
aS'1606609'
p2097
asS'1759434'
p2098
(lp2099
S'647356'
p2100
asS'2092694'
p2101
(lp2102
S'1774505'
p2103
asS'1228744'
p2104
(lp2105
S'1606902'
p2106
asS'623776'
p2107
(lp2108
S'1775024'
p2109
aS'1928678'
p2110
asS'1319729'
p2111
(lp2112
S'1774963'
p2113
asS'859186'
p2114
(lp2115
S'1606717'
p2116
asS'214427'
p2117
(lp2118
S'1774595'
p2119
asS'1927729'
p2120
(lp2121
S'627961'
p2122
asS'1672646'
p2123
(lp2124
S'1774996'
p2125
asS'632571'
p2126
(lp2127
S'1606902'
p2128
asS'1195015'
p2129
(lp2130
S'1606717'
p2131
asS'1477089'
p2132
(lp2133
S'1606717'
p2134
asS'1589672'
p2135
(lp2136
S'1606717'
p2137
asS'784429'
p2138
(lp2139
S'193952'
p2140
asS'2065328'
p2141
(lp2142
S'1606717'
p2143
asS'925292'
p2144
(lp2145
S'1606902'
p2146
asS'2035738'
p2147
(lp2148
S'436442'
p2149
asS'845844'
p2150
(lp2151
S'1606717'
p2152
aS'1606902'
p2153
asS'1364434'
p2154
(lp2155
S'1606902'
p2156
asS'351562'
p2157
(lp2158
S'1837210'
p2159
asS'556871'
p2160
(lp2161
S'1774862'
p2162
asS'618942'
p2163
(lp2164
S'1928678'
p2165
asS'942746'
p2166
(lp2167
S'1760376'
p2168
asS'1719347'
p2169
(lp2170
S'1606902'
p2171
aS'623203'
p2172
aS'1774452'
p2173
asS'1991065'
p2174
(lp2175
S'1775024'
p2176
asS'2035088'
p2177
(lp2178
S'2012081'
p2179
asS'448261'
p2180
(lp2181
S'1865584'
p2182
aS'1774463'
p2183
aS'1774461'
p2184
aS'2105482'
p2185
aS'218438'
p2186
asS'1758677'
p2187
(lp2188
S'1606902'
p2189
asS'737549'
p2190
(lp2191
S'647356'
p2192
aS'713254'
p2193
asS'112816'
p2194
(lp2195
S'713254'
p2196
asS'690575'
p2197
(lp2198
S'218438'
p2199
asS'357221'
p2200
(lp2201
S'1606902'
p2202
aS'1775024'
p2203
aS'1774717'
p2204
aS'1928678'
p2205
aS'713228'
p2206
aS'2105598'
p2207
asS'1594668'
p2208
(lp2209
S'218438'
p2210
asS'802505'
p2211
(lp2212
S'1774862'
p2213
aS'1774594'
p2214
aS'1606717'
p2215
aS'1774952'
p2216
asS'660133'
p2217
(lp2218
S'1606902'
p2219
asS'1905139'
p2220
(lp2221
S'1774594'
p2222
asS'682703'
p2223
(lp2224
S'1760388'
p2225
asS'163779'
p2226
(lp2227
S'436442'
p2228
asS'1599169'
p2229
(lp2230
S'1837210'
p2231
asS'190782'
p2232
(lp2233
S'1774649'
p2234
aS'713254'
p2235
aS'1760376'
p2236
asS'1872799'
p2237
(lp2238
S'1774595'
p2239
asS'1940475'
p2240
(lp2241
S'1606902'
p2242
asS'627523'
p2243
(lp2244
S'1774797'
p2245
asS'1091116'
p2246
(lp2247
S'1675399'
p2248
aS'1606902'
p2249
aS'1760388'
p2250
asS'152274'
p2251
(lp2252
S'824521'
p2253
aS'1077599'
p2254
aS'627961'
p2255
asS'1346227'
p2256
(lp2257
S'1606902'
p2258
asS'1904712'
p2259
(lp2260
S'1606902'
p2261
aS'2105453'
p2262
aS'1774717'
p2263
asS'1309105'
p2264
(lp2265
S'1760350'
p2266
asS'1579865'
p2267
(lp2268
S'1606902'
p2269
asS'759640'
p2270
(lp2271
S'1606902'
p2272
asS'1367185'
p2273
(lp2274
S'1606902'
p2275
aS'193952'
p2276
asS'741142'
p2277
(lp2278
S'1606902'
p2279
asS'1268013'
p2280
(lp2281
S'1606902'
p2282
aS'563514'
p2283
asS'534887'
p2284
(lp2285
S'1794635'
p2286
asS'1714759'
p2287
(lp2288
S'1659859'
p2289
asS'1006436'
p2290
(lp2291
S'1606902'
p2292
aS'1774594'
p2293
aS'2105598'
p2294
aS'1606717'
p2295
aS'2105603'
p2296
aS'1606607'
p2297
asS'1771279'
p2298
(lp2299
S'713229'
p2300
asS'1023700'
p2301
(lp2302
S'1774972'
p2303
aS'1774707'
p2304
asS'1455977'
p2305
(lp2306
S'713228'
p2307
aS'1775066'
p2308
aS'1606610'
p2309
aS'1775044'
p2310
aS'530619'
p2311
aS'1774717'
p2312
aS'754522'
p2313
aS'683822'
p2314
aS'1146581'
p2315
aS'930749'
p2316
aS'1775042'
p2317
aS'709795'
p2318
aS'175362'
p2319
aS'233300'
p2320
aS'713254'
p2321
aS'442085'
p2322
asS'1491250'
p2323
(lp2324
S'1606902'
p2325
aS'1774603'
p2326
aS'529228'
p2327
aS'436442'
p2328
asS'1186191'
p2329
(lp2330
S'1775076'
p2331
asS'959823'
p2332
(lp2333
S'1606902'
p2334
asS'911609'
p2335
(lp2336
S'1606902'
p2337
aS'1774452'
p2338
aS'549649'
p2339
asS'804682'
p2340
(lp2341
S'1606902'
p2342
aS'621735'
p2343
asS'225401'
p2344
(lp2345
S'1606902'
p2346
asS'599736'
p2347
(lp2348
S'1775024'
p2349
aS'1775011'
p2350
aS'1775028'
p2351
aS'1419930'
p2352
aS'1606574'
p2353
aS'1760350'
p2354
asS'1886135'
p2355
(lp2356
S'1954203'
p2357
asS'1045594'
p2358
(lp2359
S'682877'
p2360
aS'1606717'
p2361
aS'1349990'
p2362
aS'1760320'
p2363
aS'1774452'
p2364
aS'1760396'
p2365
aS'1774849'
p2366
aS'1774550'
p2367
aS'1774797'
p2368
aS'2393452'
p2369
aS'1774520'
p2370
asS'156995'
p2371
(lp2372
S'576489'
p2373
asS'433611'
p2374
(lp2375
S'1774717'
p2376
asS'1744036'
p2377
(lp2378
S'1606902'
p2379
asS'1439097'
p2380
(lp2381
S'340181'
p2382
aS'1791518'
p2383
aS'1675399'
p2384
aS'1774862'
p2385
asS'743016'
p2386
(lp2387
S'1606902'
p2388
asS'568911'
p2389
(lp2390
S'1606902'
p2391
asS'323881'
p2392
(lp2393
S'1760350'
p2394
asS'1280446'
p2395
(lp2396
S'1774550'
p2397
asS'452756'
p2398
(lp2399
S'704241'
p2400
aS'1775025'
p2401
asS'954053'
p2402
(lp2403
S'1774963'
p2404
asS'243333'
p2405
(lp2406
S'1606717'
p2407
asS'867227'
p2408
(lp2409
S'1774509'
p2410
asS'645749'
p2411
(lp2412
S'552675'
p2413
aS'1760350'
p2414
aS'1774952'
p2415
aS'713248'
p2416
aS'1775044'
p2417
aS'1025952'
p2418
asS'1279244'
p2419
(lp2420
S'1606902'
p2421
aS'1775076'
p2422
aS'1606474'
p2423
aS'1774797'
p2424
aS'1774613'
p2425
aS'1775024'
p2426
aS'1244528'
p2427
aS'2280082'
p2428
aS'218438'
p2429
aS'1774869'
p2430
aS'1774717'
p2431
aS'1760402'
p2432
aS'1774799'
p2433
aS'1902321'
p2434
aS'424464'
p2435
aS'1774444'
p2436
aS'522289'
p2437
aS'1606717'
p2438
aS'1760320'
p2439
aS'1774848'
p2440
aS'741909'
p2441
asS'607071'
p2442
(lp2443
S'1774452'
p2444
asS'1284109'
p2445
(lp2446
S'1606902'
p2447
asS'1144745'
p2448
(lp2449
S'1774963'
p2450
aS'713254'
p2451
asS'933810'
p2452
(lp2453
S'1095970'
p2454
asS'1575145'
p2455
(lp2456
S'1606902'
p2457
aS'127164'
p2458
aS'1760388'
p2459
aS'556841'
p2460
aS'1774963'
p2461
aS'430065'
p2462
aS'1774969'
p2463
aS'290927'
p2464
aS'713254'
p2465
aS'1760400'
p2466
aS'1606717'
p2467
aS'1774706'
p2468
aS'358513'
p2469
aS'1774862'
p2470
aS'1606607'
p2471
aS'1774454'
p2472
aS'1774686'
p2473
aS'1775025'
p2474
aS'1760401'
p2475
aS'1774723'
p2476
aS'478929'
p2477
aS'859175'
p2478
aS'683822'
p2479
aS'1760362'
p2480
aS'665932'
p2481
asS'1315078'
p2482
(lp2483
S'2105603'
p2484
aS'312685'
p2485
asS'1401938'
p2486
(lp2487
S'1774505'
p2488
asS'280538'
p2489
(lp2490
S'1774505'
p2491
asS'1663152'
p2492
(lp2493
S'731389'
p2494
asS'634110'
p2495
(lp2496
S'1774684'
p2497
asS'417737'
p2498
(lp2499
S'1774684'
p2500
aS'1760400'
p2501
aS'1760402'
p2502
asS'882442'
p2503
(lp2504
S'1760376'
p2505
asS'1147725'
p2506
(lp2507
S'713254'
p2508
aS'1837210'
p2509
asS'1850815'
p2510
(lp2511
S'1774972'
p2512
asS'814691'
p2513
(lp2514
S'713250'
p2515
asS'685903'
p2516
(lp2517
S'1606902'
p2518
aS'1775029'
p2519
aS'623203'
p2520
aS'1774452'
p2521
aS'682877'
p2522
aS'1774717'
p2523
aS'563514'
p2524
aS'754522'
p2525
asS'150350'
p2526
(lp2527
S'1606902'
p2528
aS'1775024'
p2529
asS'1587042'
p2530
(lp2531
S'2105598'
p2532
aS'1928678'
p2533
aS'1774454'
p2534
asS'774464'
p2535
(lp2536
S'2105515'
p2537
asS'1012679'
p2538
(lp2539
S'1774717'
p2540
asS'1025807'
p2541
(lp2542
S'1606902'
p2543
asS'283026'
p2544
(lp2545
S'1774452'
p2546
asS'1350045'
p2547
(lp2548
S'193952'
p2549
aS'1606717'
p2550
asS'402129'
p2551
(lp2552
S'1606902'
p2553
asS'582821'
p2554
(lp2555
S'1606902'
p2556
aS'1760642'
p2557
aS'575662'
p2558
aS'1606609'
p2559
aS'1760326'
p2560
aS'683822'
p2561
aS'452661'
p2562
aS'713254'
p2563
asS'2054167'
p2564
(lp2565
S'1775088'
p2566
aS'1774717'
p2567
aS'1774797'
p2568
aS'193952'
p2569
aS'421653'
p2570
aS'1774957'
p2571
asS'928191'
p2572
(lp2573
S'1606902'
p2574
asS'103618'
p2575
(lp2576
S'1606902'
p2577
asS'858971'
p2578
(lp2579
S'1606902'
p2580
asS'575738'
p2581
(lp2582
S'1606902'
p2583
asS'527562'
p2584
(lp2585
S'1606609'
p2586
asS'1249869'
p2587
(lp2588
S'713228'
p2589
aS'1774713'
p2590
aS'1775045'
p2591
aS'1774462'
p2592
aS'1774594'
p2593
aS'1774963'
p2594
aS'1774452'
p2595
aS'1774862'
p2596
aS'1760376'
p2597
aS'1774848'
p2598
aS'1774996'
p2599
aS'1774692'
p2600
aS'1932882'
p2601
aS'713254'
p2602
aS'1774684'
p2603
aS'458026'
p2604
aS'665932'
p2605
aS'1928655'
p2606
aS'441554'
p2607
aS'683822'
p2608
aS'1774509'
p2609
aS'1954203'
p2610
aS'218438'
p2611
aS'1606902'
p2612
aS'300076'
p2613
aS'478929'
p2614
aS'1774463'
p2615
aS'562574'
p2616
aS'1606552'
p2617
aS'530619'
p2618
aS'1775001'
p2619
aS'549649'
p2620
aS'1774534'
p2621
aS'1606609'
p2622
aS'1606610'
p2623
aS'1774999'
p2624
aS'2335872'
p2625
aS'754522'
p2626
aS'1606515'
p2627
aS'1774603'
p2628
aS'1760403'
p2629
aS'1774453'
p2630
aS'1760654'
p2631
aS'1774502'
p2632
aS'639313'
p2633
aS'1774957'
p2634
aS'1774520'
p2635
aS'1774969'
p2636
aS'1760381'
p2637
aS'575479'
p2638
aS'1704256'
p2639
aS'1760353'
p2640
aS'459657'
p2641
aS'1775044'
p2642
aS'556841'
p2643
aS'778749'
p2644
aS'559957'
p2645
aS'1760367'
p2646
aS'618846'
p2647
aS'725379'
p2648
aS'539162'
p2649
aS'1774482'
p2650
aS'1774954'
p2651
aS'1760401'
p2652
aS'731434'
p2653
aS'969219'
p2654
aS'687441'
p2655
aS'2105486'
p2656
aS'1774798'
p2657
aS'725183'
p2658
aS'2105349'
p2659
aS'2105597'
p2660
aS'2105514'
p2661
aS'1774457'
p2662
aS'1775026'
p2663
aS'2105489'
p2664
aS'2105465'
p2665
aS'1606474'
p2666
aS'1774613'
p2667
aS'640892'
p2668
aS'1774649'
p2669
aS'1774686'
p2670
aS'1774705'
p2671
aS'1606717'
p2672
aS'572238'
p2673
aS'1349990'
p2674
aS'741909'
p2675
aS'1774539'
p2676
aS'172508'
p2677
aS'713260'
p2678
aS'2105484'
p2679
aS'2105512'
p2680
asS'776317'
p2681
(lp2682
S'1774594'
p2683
asS'1231515'
p2684
(lp2685
S'1606717'
p2686
asS'1059350'
p2687
(lp2688
S'1606902'
p2689
asS'130336'
p2690
(lp2691
S'1774722'
p2692
asS'166449'
p2693
(lp2694
S'1775024'
p2695
asS'672693'
p2696
(lp2697
S'1606902'
p2698
asS'1928062'
p2699
(lp2700
S'1774797'
p2701
aS'458026'
p2702
aS'172508'
p2703
aS'1774684'
p2704
aS'1349990'
p2705
aS'1606474'
p2706
aS'1774789'
p2707
aS'798225'
p2708
aS'472999'
p2709
asS'1376758'
p2710
(lp2711
S'1775045'
p2712
asS'999667'
p2713
(lp2714
S'1775024'
p2715
asS'253910'
p2716
(lp2717
S'713254'
p2718
aS'428085'
p2719
asS'579001'
p2720
(lp2721
S'1606902'
p2722
asS'890583'
p2723
(lp2724
S'1606902'
p2725
asS'1762550'
p2726
(lp2727
S'1606902'
p2728
asS'1399050'
p2729
(lp2730
S'1606902'
p2731
asS'2002132'
p2732
(lp2733
S'1774717'
p2734
aS'563514'
p2735
asS'857553'
p2736
(lp2737
S'1606902'
p2738
aS'1760388'
p2739
asS'150135'
p2740
(lp2741
S'647356'
p2742
asS'1492085'
p2743
(lp2744
S'1775044'
p2745
aS'1760338'
p2746
aS'727272'
p2747
asS'125669'
p2748
(lp2749
S'1606717'
p2750
aS'1606902'
p2751
aS'670442'
p2752
asS'763398'
p2753
(lp2754
S'1760376'
p2755
asS'909699'
p2756
(lp2757
S'1606902'
p2758
asS'1727703'
p2759
(lp2760
S'1774717'
p2761
asS'1249460'
p2762
(lp2763
S'218438'
p2764
asS'766387'
p2765
(lp2766
S'1606902'
p2767
aS'1760376'
p2768
asS'200292'
p2769
(lp2770
S'1606902'
p2771
asS'1584065'
p2772
(lp2773
S'1774770'
p2774
aS'1834460'
p2775
aS'456253'
p2776
aS'1774851'
p2777
aS'721665'
p2778
aS'1774783'
p2779
aS'1774799'
p2780
aS'1182854'
p2781
aS'1774787'
p2782
aS'1774675'
p2783
aS'1774798'
p2784
aS'1774621'
p2785
aS'2280082'
p2786
aS'1774686'
p2787
aS'1834387'
p2788
aS'1046191'
p2789
aS'573423'
p2790
aS'1774923'
p2791
aS'1760328'
p2792
aS'1792564'
p2793
aS'922070'
p2794
aS'1774816'
p2795
aS'372259'
p2796
aS'930749'
p2797
aS'1606902'
p2798
aS'725379'
p2799
aS'1842086'
p2800
aS'646592'
p2801
aS'1774408'
p2802
aS'1586439'
p2803
asS'762546'
p2804
(lp2805
S'1837210'
p2806
asS'597047'
p2807
(lp2808
S'1760402'
p2809
aS'1954203'
p2810
aS'1774816'
p2811
aS'2181660'
p2812
aS'552675'
p2813
aS'1760401'
p2814
aS'1774505'
p2815
aS'2105476'
p2816
aS'218438'
p2817
aS'1775024'
p2818
aS'1837210'
p2819
aS'1774713'
p2820
aS'1419930'
p2821
aS'1675399'
p2822
aS'1760350'
p2823
aS'1774613'
p2824
aS'1606574'
p2825
aS'499412'
p2826
asS'332302'
p2827
(lp2828
S'1606717'
p2829
asS'140479'
p2830
(lp2831
S'1606717'
p2832
asS'559339'
p2833
(lp2834
S'1760401'
p2835
aS'1606609'
p2836
asS'836352'
p2837
(lp2838
S'1774595'
p2839
asS'251196'
p2840
(lp2841
S'1606717'
p2842
aS'1774789'
p2843
asS'974862'
p2844
(lp2845
S'1606902'
p2846
aS'827735'
p2847
aS'231865'
p2848
aS'1774985'
p2849
aS'218438'
p2850
aS'721665'
p2851
aS'131665'
p2852
aS'1774684'
p2853
aS'1637775'
p2854
aS'1775076'
p2855
aS'691730'
p2856
aS'725379'
p2857
aS'908591'
p2858
aS'1760642'
p2859
aS'183705'
p2860
aS'1775024'
p2861
aS'1675399'
p2862
aS'180788'
p2863
aS'461710'
p2864
aS'1760338'
p2865
aS'713254'
p2866
aS'741909'
p2867
aS'1775044'
p2868
aS'1760320'
p2869
aS'1760350'
p2870
aS'2393452'
p2871
aS'1349990'
p2872
aS'1774963'
p2873
aS'2105598'
p2874
aS'1774692'
p2875
aS'1902321'
p2876
aS'640892'
p2877
aS'1928655'
p2878
aS'1108697'
p2879
aS'1774565'
p2880
aS'504783'
p2881
aS'2105484'
p2882
asS'237670'
p2883
(lp2884
S'1745563'
p2885
aS'225526'
p2886
aS'1774408'
p2887
aS'788396'
p2888
aS'1421380'
p2889
aS'1221418'
p2890
aS'1528881'
p2891
aS'135294'
p2892
aS'258300'
p2893
aS'242059'
p2894
aS'721665'
p2895
aS'586592'
p2896
aS'638564'
p2897
aS'1146581'
p2898
aS'1775070'
p2899
aS'784685'
p2900
aS'704739'
p2901
aS'1919183'
p2902
aS'1480460'
p2903
asS'2016897'
p2904
(lp2905
S'647356'
p2906
asS'2083967'
p2907
(lp2908
S'1774684'
p2909
asS'1883195'
p2910
(lp2911
S'1760320'
p2912
aS'1775024'
p2913
aS'724706'
p2914
aS'436442'
p2915
aS'1606609'
p2916
aS'1760338'
p2917
aS'1675399'
p2918
aS'218438'
p2919
aS'1928678'
p2920
aS'1774722'
p2921
aS'754522'
p2922
asS'349111'
p2923
(lp2924
S'1775025'
p2925
asS'113442'
p2926
(lp2927
S'1606902'
p2928
asS'763574'
p2929
(lp2930
S'1606902'
p2931
asS'1456949'
p2932
(lp2933
S'1606902'
p2934
asS'1179678'
p2935
(lp2936
S'727272'
p2937
asS'571153'
p2938
(lp2939
S'1606902'
p2940
asS'701040'
p2941
(lp2942
S'908591'
p2943
asS'1154997'
p2944
(lp2945
S'724706'
p2946
aS'674753'
p2947
asS'102750'
p2948
(lp2949
S'1775025'
p2950
aS'1775045'
p2951
aS'1774963'
p2952
aS'1774511'
p2953
asS'999878'
p2954
(lp2955
S'2105484'
p2956
aS'2105603'
p2957
aS'1302771'
p2958
aS'1760350'
p2959
aS'1774816'
p2960
aS'1775011'
p2961
aS'2188303'
p2962
aS'225500'
p2963
aS'1774509'
p2964
aS'621735'
p2965
aS'1774717'
p2966
aS'1774862'
p2967
aS'2105599'
p2968
aS'1774684'
p2969
aS'372259'
p2970
aS'713240'
p2971
aS'713248'
p2972
aS'1774999'
p2973
aS'1774594'
p2974
aS'401062'
p2975
aS'1774536'
p2976
aS'1760401'
p2977
aS'1586439'
p2978
asS'362981'
p2979
(lp2980
S'1606902'
p2981
aS'1760398'
p2982
asS'1091878'
p2983
(lp2984
S'563514'
p2985
asS'948395'
p2986
(lp2987
S'1774505'
p2988
asS'685958'
p2989
(lp2990
S'1606902'
p2991
asS'1184122'
p2992
(lp2993
S'754522'
p2994
asS'601763'
p2995
(lp2996
S'1606717'
p2997
asS'296253'
p2998
(lp2999
S'1606902'
p3000
aS'922070'
p3001
asS'1470992'
p3002
(lp3003
S'1760376'
p3004
asS'1699216'
p3005
(lp3006
S'1774599'
p3007
aS'2188303'
p3008
aS'1774595'
p3009
aS'530619'
p3010
aS'930749'
p3011
aS'1774603'
p3012
aS'1774505'
p3013
aS'824521'
p3014
aS'1774957'
p3015
aS'2105453'
p3016
aS'1760376'
p3017
aS'725379'
p3018
aS'1774713'
p3019
aS'1606902'
p3020
aS'1774515'
p3021
aS'1760402'
p3022
aS'1760398'
p3023
aS'1774463'
p3024
aS'562574'
p3025
aS'1760320'
p3026
aS'1774550'
p3027
aS'665932'
p3028
aS'1606574'
p3029
aS'586592'
p3030
aS'559957'
p3031
aS'2012081'
p3032
aS'1775028'
p3033
aS'1774466'
p3034
aS'1775025'
p3035
aS'513098'
p3036
aS'2105489'
p3037
aS'695387'
p3038
aS'1638658'
p3039
aS'374244'
p3040
aS'694649'
p3041
aS'682877'
p3042
aS'1774717'
p3043
aS'1760350'
p3044
aS'2105784'
p3045
aS'572220'
p3046
aS'1775029'
p3047
aS'1774539'
p3048
aS'192956'
p3049
aS'725183'
p3050
aS'1606717'
p3051
aS'1775076'
p3052
aS'1775011'
p3053
aS'1586439'
p3054
aS'1760381'
p3055
aS'727272'
p3056
aS'441554'
p3057
aS'2105563'
p3058
aS'1774816'
p3059
aS'1606515'
p3060
asS'1564785'
p3061
(lp3062
S'1760350'
p3063
aS'218438'
p3064
asS'1986522'
p3065
(lp3066
S'1791518'
p3067
asS'1944063'
p3068
(lp3069
S'1606717'
p3070
asS'1750599'
p3071
(lp3072
S'1606902'
p3073
aS'628623'
p3074
asS'2093460'
p3075
(lp3076
S'1774594'
p3077
aS'1774862'
p3078
aS'1791518'
p3079
aS'544479'
p3080
asS'1664090'
p3081
(lp3082
S'1606902'
p3083
asS'1697682'
p3084
(lp3085
S'647356'
p3086
asS'1596718'
p3087
(lp3088
S'1606717'
p3089
aS'1760402'
p3090
asS'1826191'
p3091
(lp3092
S'1606902'
p3093
asS'1877792'
p3094
(lp3095
S'1606902'
p3096
aS'1586439'
p3097
asS'1281037'
p3098
(lp3099
S'1606902'
p3100
asS'1100328'
p3101
(lp3102
S'731389'
p3103
aS'1775045'
p3104
aS'1606902'
p3105
asS'363836'
p3106
(lp3107
S'1774408'
p3108
asS'1232989'
p3109
(lp3110
S'1606902'
p3111
aS'1606717'
p3112
aS'401062'
p3113
asS'1534758'
p3114
(lp3115
S'1932882'
p3116
aS'441411'
p3117
aS'1928748'
p3118
aS'1606902'
p3119
aS'553607'
p3120
aS'687441'
p3121
aS'218438'
p3122
aS'1774717'
p3123
aS'1606552'
p3124
aS'1760402'
p3125
aS'1775025'
p3126
aS'2105476'
p3127
aS'1760360'
p3128
asS'1889835'
p3129
(lp3130
S'1774717'
p3131
asS'216116'
p3132
(lp3133
S'1932882'
p3134
asS'1139283'
p3135
(lp3136
S'2335872'
p3137
asS'1401924'
p3138
(lp3139
S'1606902'
p3140
asS'1081392'
p3141
(lp3142
S'1606902'
p3143
asS'1531729'
p3144
(lp3145
S'683822'
p3146
asS'291220'
p3147
(lp3148
S'1606902'
p3149
aS'1606717'
p3150
asS'1970139'
p3151
(lp3152
S'1606902'
p3153
asS'453369'
p3154
(lp3155
S'1775042'
p3156
aS'1775044'
p3157
aS'713242'
p3158
aS'502744'
p3159
aS'549866'
p3160
aS'1774722'
p3161
aS'1774454'
p3162
aS'683822'
p3163
asS'1168914'
p3164
(lp3165
S'1606717'
p3166
asS'832847'
p3167
(lp3168
S'1774684'
p3169
aS'1760350'
p3170
aS'1774683'
p3171
asS'833534'
p3172
(lp3173
S'1760364'
p3174
aS'1760654'
p3175
aS'340181'
p3176
aS'1349990'
p3177
aS'1775098'
p3178
aS'713260'
p3179
aS'131665'
p3180
aS'1774952'
p3181
aS'193952'
p3182
aS'1774706'
p3183
aS'1774509'
p3184
aS'2188303'
p3185
aS'727272'
p3186
aS'1774797'
p3187
aS'1774963'
p3188
aS'778749'
p3189
aS'627961'
p3190
aS'300076'
p3191
aS'728408'
p3192
aS'1086517'
p3193
aS'1505267'
p3194
aS'786313'
p3195
aS'189385'
p3196
aS'388526'
p3197
aS'1606717'
p3198
aS'1606474'
p3199
aS'2105603'
p3200
asS'2065964'
p3201
(lp3202
S'1606717'
p3203
aS'1606902'
p3204
asS'738077'
p3205
(lp3206
S'1586439'
p3207
aS'458026'
p3208
asS'549594'
p3209
(lp3210
S'1610815'
p3211
aS'388139'
p3212
asS'1109625'
p3213
(lp3214
S'290927'
p3215
asS'1147110'
p3216
(lp3217
S'1760642'
p3218
asS'815938'
p3219
(lp3220
S'562574'
p3221
aS'563514'
p3222
aS'727272'
p3223
aS'713254'
p3224
aS'2105514'
p3225
aS'1760376'
p3226
aS'1760396'
p3227
aS'1760367'
p3228
asS'1744372'
p3229
(lp3230
S'1606902'
p3231
asS'1744378'
p3232
(lp3233
S'387611'
p3234
asS'1545632'
p3235
(lp3236
S'218438'
p3237
asS'1347910'
p3238
(lp3239
S'1412065'
p3240
aS'1023543'
p3241
aS'1614010'
p3242
aS'727272'
p3243
aS'1760427'
p3244
asS'2095366'
p3245
(lp3246
S'1775024'
p3247
asS'1787892'
p3248
(lp3249
S'713254'
p3250
aS'1606574'
p3251
aS'754522'
p3252
asS'1007447'
p3253
(lp3254
S'1774963'
p3255
asS'735580'
p3256
(lp3257
S'1606574'
p3258
aS'1606610'
p3259
asS'305863'
p3260
(lp3261
S'1606902'
p3262
aS'1774963'
p3263
aS'1606610'
p3264
aS'731434'
p3265
aS'1606717'
p3266
aS'1775098'
p3267
aS'2393452'
p3268
aS'1606608'
p3269
aS'1774595'
p3270
aS'754522'
p3271
aS'713254'
p3272
aS'2105598'
p3273
aS'1774461'
p3274
aS'1837210'
p3275
asS'339568'
p3276
(lp3277
S'549866'
p3278
asS'282365'
p3279
(lp3280
S'731389'
p3281
aS'1760642'
p3282
aS'755157'
p3283
aS'436442'
p3284
asS'1827808'
p3285
(lp3286
S'713228'
p3287
asS'1771647'
p3288
(lp3289
S'1606902'
p3290
asS'1276170'
p3291
(lp3292
S'1606902'
p3293
asS'979740'
p3294
(lp3295
S'1606902'
p3296
asS'1507879'
p3297
(lp3298
S'1774713'
p3299
aS'2105599'
p3300
aS'1606574'
p3301
asS'1324843'
p3302
(lp3303
S'1606717'
p3304
asS'1820782'
p3305
(lp3306
S'1760402'
p3307
asS'1354301'
p3308
(lp3309
S'1775024'
p3310
asS'1093353'
p3311
(lp3312
S'1419930'
p3313
aS'1774797'
p3314
asS'1369283'
p3315
(lp3316
S'1606902'
p3317
asS'1756241'
p3318
(lp3319
S'1606609'
p3320
aS'1775011'
p3321
aS'1606902'
p3322
aS'1954203'
p3323
aS'1774797'
p3324
aS'2105603'
p3325
aS'922070'
p3326
aS'741521'
p3327
aS'647356'
p3328
aS'1760399'
p3329
aS'592273'
p3330
aS'1774509'
p3331
aS'629574'
p3332
aS'544479'
p3333
aS'1775009'
p3334
aS'1606574'
p3335
asS'381618'
p3336
(lp3337
S'1606902'
p3338
asS'1486356'
p3339
(lp3340
S'1606610'
p3341
aS'1775011'
p3342
aS'1775025'
p3343
aS'1774505'
p3344
aS'436442'
p3345
aS'1774452'
p3346
aS'1774595'
p3347
aS'1774722'
p3348
asS'151232'
p3349
(lp3350
S'1774452'
p3351
aS'1606902'
p3352
aS'1774594'
p3353
asS'776416'
p3354
(lp3355
S'1606902'
p3356
asS'1353435'
p3357
(lp3358
S'1774717'
p3359
asS'915851'
p3360
(lp3361
S'647356'
p3362
aS'458026'
p3363
aS'1606574'
p3364
asS'1722454'
p3365
(lp3366
S'1606717'
p3367
asS'839567'
p3368
(lp3369
S'1774862'
p3370
aS'1774717'
p3371
asS'1753776'
p3372
(lp3373
S'713240'
p3374
aS'1606717'
p3375
asS'1231167'
p3376
(lp3377
S'1419930'
p3378
aS'1774505'
p3379
asS'1509869'
p3380
(lp3381
S'1606717'
p3382
asS'631772'
p3383
(lp3384
S'1606902'
p3385
asS'1421496'
p3386
(lp3387
S'1774595'
p3388
asS'1239750'
p3389
(lp3390
S'1774710'
p3391
aS'2335872'
p3392
aS'2105529'
p3393
aS'824521'
p3394
aS'1775087'
p3395
aS'1760386'
p3396
aS'1774962'
p3397
aS'1760308'
p3398
aS'1774594'
p3399
aS'1775040'
p3400
aS'1606610'
p3401
aS'646592'
p3402
aS'713229'
p3403
aS'1774675'
p3404
aS'1774686'
p3405
aS'1775042'
p3406
aS'2105484'
p3407
aS'2169800'
p3408
aS'713250'
p3409
aS'1606607'
p3410
aS'731434'
p3411
aS'859545'
p3412
aS'724526'
p3413
aS'867199'
p3414
aS'1774636'
p3415
aS'549866'
p3416
aS'1606902'
p3417
aS'724489'
p3418
aS'1835624'
p3419
aS'758083'
p3420
aS'1774616'
p3421
aS'786313'
p3422
aS'249736'
p3423
aS'1606540'
p3424
aS'1774795'
p3425
aS'299289'
p3426
aS'2105515'
p3427
aS'1774959'
p3428
aS'1458847'
p3429
aS'2076876'
p3430
aS'1538382'
p3431
aS'577332'
p3432
aS'1235762'
p3433
asS'1985511'
p3434
(lp3435
S'647356'
p3436
aS'1774505'
p3437
aS'1775011'
p3438
aS'436442'
p3439
aS'713254'
p3440
asS'1200863'
p3441
(lp3442
S'337862'
p3443
asS'1708584'
p3444
(lp3445
S'1606902'
p3446
asS'878734'
p3447
(lp3448
S'1606717'
p3449
aS'1606902'
p3450
asS'1291782'
p3451
(lp3452
S'1606902'
p3453
aS'1774963'
p3454
aS'1760350'
p3455
aS'2105599'
p3456
aS'2188303'
p3457
aS'1774722'
p3458
asS'1151828'
p3459
(lp3460
S'1774967'
p3461
asS'824406'
p3462
(lp3463
S'1606902'
p3464
asS'257821'
p3465
(lp3466
S'1606902'
p3467
asS'1727714'
p3468
(lp3469
S'1774683'
p3470
aS'1774706'
p3471
aS'1932882'
p3472
asS'2047824'
p3473
(lp3474
S'1774505'
p3475
asS'976129'
p3476
(lp3477
S'1606902'
p3478
aS'291065'
p3479
aS'758083'
p3480
asS'1654186'
p3481
(lp3482
S'1760654'
p3483
aS'2105476'
p3484
aS'1774615'
p3485
aS'424477'
p3486
aS'560438'
p3487
aS'1774808'
p3488
aS'715470'
p3489
asS'1066351'
p3490
(lp3491
S'1606608'
p3492
aS'2105561'
p3493
aS'713254'
p3494
aS'563514'
p3495
aS'1775042'
p3496
aS'544479'
p3497
aS'1606610'
p3498
aS'1774408'
p3499
aS'2105532'
p3500
aS'539162'
p3501
aS'713248'
p3502
aS'1760328'
p3503
aS'1774969'
p3504
aS'1932882'
p3505
aS'1774454'
p3506
aS'713250'
p3507
aS'1775022'
p3508
aS'549649'
p3509
aS'2105598'
p3510
aS'291065'
p3511
aS'1774463'
p3512
aS'277695'
p3513
aS'2105465'
p3514
aS'1374348'
p3515
aS'1606902'
p3516
aS'1760430'
p3517
asS'1023389'
p3518
(lp3519
S'1606717'
p3520
asS'1014624'
p3521
(lp3522
S'1606902'
p3523
aS'1760338'
p3524
aS'727272'
p3525
aS'665875'
p3526
aS'1606717'
p3527
aS'1675399'
p3528
aS'1774977'
p3529
aS'1606574'
p3530
aS'1774996'
p3531
aS'1606552'
p3532
aS'100137'
p3533
aS'1774963'
p3534
asS'510061'
p3535
(lp3536
S'1606609'
p3537
asS'1495487'
p3538
(lp3539
S'1606902'
p3540
asS'1098895'
p3541
(lp3542
S'1774963'
p3543
asS'1607579'
p3544
(lp3545
S'1606902'
p3546
asS'997475'
p3547
(lp3548
S'1606902'
p3549
asS'1387390'
p3550
(lp3551
S'458026'
p3552
asS'546103'
p3553
(lp3554
S'647356'
p3555
asS'289054'
p3556
(lp3557
S'1775011'
p3558
asS'498529'
p3559
(lp3560
S'1606902'
p3561
asS'1163404'
p3562
(lp3563
S'2012081'
p3564
asS'188807'
p3565
(lp3566
S'1774505'
p3567
aS'1775011'
p3568
asS'1180303'
p3569
(lp3570
S'1146581'
p3571
asS'1882585'
p3572
(lp3573
S'694649'
p3574
aS'1760350'
p3575
aS'1606609'
p3576
aS'1837210'
p3577
aS'1775045'
p3578
aS'1760400'
p3579
aS'713250'
p3580
asS'1522963'
p3581
(lp3582
S'1606902'
p3583
aS'1774594'
p3584
asS'1079281'
p3585
(lp3586
S'1760338'
p3587
aS'1774539'
p3588
aS'1760400'
p3589
asS'1411070'
p3590
(lp3591
S'1606902'
p3592
aS'2105455'
p3593
aS'2105598'
p3594
aS'563514'
p3595
aS'520729'
p3596
aS'647356'
p3597
aS'1760402'
p3598
aS'338764'
p3599
aS'1675399'
p3600
aS'1774505'
p3601
aS'1606574'
p3602
aS'1606515'
p3603
aS'1774594'
p3604
aS'1774532'
p3605
aS'1774705'
p3606
aS'2287260'
p3607
aS'1760376'
p3608
aS'1928678'
p3609
aS'2105599'
p3610
aS'1760403'
p3611
aS'1775024'
p3612
aS'1606596'
p3613
aS'2105514'
p3614
aS'1775025'
p3615
aS'1760338'
p3616
aS'1774454'
p3617
aS'1775042'
p3618
aS'1775011'
p3619
aS'1774595'
p3620
aS'1774718'
p3621
aS'1954203'
p3622
aS'2393452'
p3623
aS'1774452'
p3624
aS'1774963'
p3625
aS'1760320'
p3626
aS'1774482'
p3627
aS'674753'
p3628
aS'1774539'
p3629
aS'1774816'
p3630
aS'1774687'
p3631
aS'713248'
p3632
aS'1928655'
p3633
aS'665932'
p3634
aS'844187'
p3635
aS'1774706'
p3636
aS'1837210'
p3637
aS'626955'
p3638
asS'471964'
p3639
(lp3640
S'1775011'
p3641
asS'586873'
p3642
(lp3643
S'930749'
p3644
asS'342238'
p3645
(lp3646
S'1774505'
p3647
aS'647356'
p3648
asS'704216'
p3649
(lp3650
S'1774684'
p3651
asS'1334340'
p3652
(lp3653
S'1606902'
p3654
aS'1774862'
p3655
asS'1679502'
p3656
(lp3657
S'1775042'
p3658
asS'1574747'
p3659
(lp3660
S'505639'
p3661
asS'1553179'
p3662
(lp3663
S'1606902'
p3664
aS'1928678'
p3665
asS'1435843'
p3666
(lp3667
S'682877'
p3668
aS'1774595'
p3669
aS'1775029'
p3670
asS'718850'
p3671
(lp3672
S'1606717'
p3673
asS'521716'
p3674
(lp3675
S'1606902'
p3676
asS'1705606'
p3677
(lp3678
S'1774594'
p3679
aS'1606902'
p3680
asS'1259032'
p3681
(lp3682
S'1606902'
p3683
asS'863417'
p3684
(lp3685
S'1606902'
p3686
asS'432188'
p3687
(lp3688
S'1606717'
p3689
asS'1915206'
p3690
(lp3691
S'754522'
p3692
asS'412861'
p3693
(lp3694
S'1606902'
p3695
asS'1970923'
p3696
(lp3697
S'1606902'
p3698
asS'1886110'
p3699
(lp3700
S'403259'
p3701
asS'548616'
p3702
(lp3703
S'1775044'
p3704
asS'453486'
p3705
(lp3706
S'1928678'
p3707
asS'1433906'
p3708
(lp3709
S'1606717'
p3710
asS'1296138'
p3711
(lp3712
S'1606717'
p3713
aS'1774533'
p3714
aS'1760400'
p3715
asS'710837'
p3716
(lp3717
S'1606902'
p3718
aS'713254'
p3719
asS'335258'
p3720
(lp3721
S'1606902'
p3722
asS'1334763'
p3723
(lp3724
S'1775024'
p3725
asS'844304'
p3726
(lp3727
S'436442'
p3728
aS'1774461'
p3729
aS'1787538'
p3730
aS'1774509'
p3731
aS'1774717'
p3732
aS'1775076'
p3733
aS'827735'
p3734
aS'1419930'
p3735
aS'754522'
p3736
aS'683822'
p3737
aS'1775024'
p3738
aS'2105476'
p3739
aS'647356'
p3740
aS'1760401'
p3741
aS'1775011'
p3742
aS'1760338'
p3743
aS'1774594'
p3744
aS'426750'
p3745
aS'1774536'
p3746
aS'1774687'
p3747
aS'1774505'
p3748
aS'1774708'
p3749
aS'2105349'
p3750
aS'218438'
p3751
aS'1774862'
p3752
aS'1774797'
p3753
aS'2105482'
p3754
aS'562574'
p3755
aS'1606574'
p3756
aS'2105599'
p3757
aS'2224167'
p3758
aS'1774946'
p3759
aS'1760328'
p3760
aS'1760403'
p3761
aS'2335877'
p3762
aS'1774580'
p3763
aS'1774677'
p3764
asS'475015'
p3765
(lp3766
S'544479'
p3767
aS'586592'
p3768
aS'1774959'
p3769
aS'1774408'
p3770
aS'1606902'
p3771
aS'1774973'
p3772
aS'2072200'
p3773
aS'218438'
p3774
asS'1935843'
p3775
(lp3776
S'1606902'
p3777
asS'583350'
p3778
(lp3779
S'458026'
p3780
asS'1012395'
p3781
(lp3782
S'1774862'
p3783
asS'502244'
p3784
(lp3785
S'1606607'
p3786
asS'1635205'
p3787
(lp3788
S'436442'
p3789
asS'1045647'
p3790
(lp3791
S'1606717'
p3792
asS'229707'
p3793
(lp3794
S'1606902'
p3795
asS'834501'
p3796
(lp3797
S'1606902'
p3798
asS'1206829'
p3799
(lp3800
S'1606610'
p3801
aS'1760388'
p3802
aS'1606574'
p3803
aS'1606717'
p3804
aS'1760350'
p3805
aS'1606608'
p3806
aS'724489'
p3807
asS'819491'
p3808
(lp3809
S'1606717'
p3810
asS'394224'
p3811
(lp3812
S'1774687'
p3813
asS'1957485'
p3814
(lp3815
S'727272'
p3816
asS'1244752'
p3817
(lp3818
S'1902321'
p3819
aS'1774862'
p3820
asS'1947746'
p3821
(lp3822
S'1775011'
p3823
asS'1502894'
p3824
(lp3825
S'1606717'
p3826
asS'1394761'
p3827
(lp3828
S'1606902'
p3829
aS'1774969'
p3830
asS'457251'
p3831
(lp3832
S'172508'
p3833
aS'1775024'
p3834
aS'458026'
p3835
asS'1066653'
p3836
(lp3837
S'458026'
p3838
aS'1774509'
p3839
aS'1760350'
p3840
aS'1774684'
p3841
aS'1774717'
p3842
aS'1606902'
p3843
aS'1760388'
p3844
aS'2105598'
p3845
aS'647356'
p3846
aS'2393452'
p3847
aS'1928678'
p3848
asS'857725'
p3849
(lp3850
S'1606607'
p3851
aS'1774972'
p3852
aS'2215395'
p3853
aS'2105458'
p3854
aS'1774589'
p3855
aS'725379'
p3856
aS'586592'
p3857
aS'646592'
p3858
aS'778749'
p3859
aS'424477'
p3860
aS'1791518'
p3861
aS'1774600'
p3862
aS'513098'
p3863
aS'1760425'
p3864
aS'1606557'
p3865
aS'480678'
p3866
aS'798225'
p3867
aS'1774707'
p3868
aS'1928724'
p3869
asS'136361'
p3870
(lp3871
S'1606609'
p3872
asS'1027663'
p3873
(lp3874
S'1774540'
p3875
asS'1889795'
p3876
(lp3877
S'1606717'
p3878
asS'197185'
p3879
(lp3880
S'1774594'
p3881
aS'577590'
p3882
aS'441554'
p3883
aS'1774534'
p3884
aS'729772'
p3885
aS'645113'
p3886
aS'586592'
p3887
asS'209993'
p3888
(lp3889
S'1606902'
p3890
asS'2037538'
p3891
(lp3892
S'2105476'
p3893
asS'664084'
p3894
(lp3895
S'1760402'
p3896
aS'922070'
p3897
asS'917388'
p3898
(lp3899
S'1606902'
p3900
asS'1322696'
p3901
(lp3902
S'1606902'
p3903
aS'1760350'
p3904
asS'496042'
p3905
(lp3906
S'478929'
p3907
asS'1371316'
p3908
(lp3909
S'1775025'
p3910
asS'1958733'
p3911
(lp3912
S'1606902'
p3913
asS'1428518'
p3914
(lp3915
S'1606902'
p3916
aS'1774963'
p3917
aS'1928678'
p3918
aS'1606609'
p3919
asS'1703123'
p3920
(lp3921
S'1606902'
p3922
aS'870756'
p3923
aS'1606607'
p3924
asS'166460'
p3925
(lp3926
S'1775011'
p3927
aS'682877'
p3928
aS'1774717'
p3929
aS'647356'
p3930
asS'1780036'
p3931
(lp3932
S'2105561'
p3933
asS'560593'
p3934
(lp3935
S'1760320'
p3936
asS'813247'
p3937
(lp3938
S'1419930'
p3939
aS'1606609'
p3940
aS'754522'
p3941
aS'1760388'
p3942
asS'1627626'
p3943
(lp3944
S'1775024'
p3945
asS'1568681'
p3946
(lp3947
S'1606902'
p3948
asS'737186'
p3949
(lp3950
S'1675399'
p3951
asS'315173'
p3952
(lp3953
S'1774412'
p3954
aS'713250'
p3955
aS'2335873'
p3956
aS'1775033'
p3957
aS'1774427'
p3958
aS'1775040'
p3959
aS'2105464'
p3960
aS'456253'
p3961
asS'1359782'
p3962
(lp3963
S'1606902'
p3964
asS'492699'
p3965
(lp3966
S'1606609'
p3967
asS'616089'
p3968
(lp3969
S'1606717'
p3970
aS'1606902'
p3971
aS'1606574'
p3972
aS'1774816'
p3973
asS'852064'
p3974
(lp3975
S'1606902'
p3976
asS'279363'
p3977
(lp3978
S'1760350'
p3979
asS'1974918'
p3980
(lp3981
S'1774408'
p3982
asS'1050443'
p3983
(lp3984
S'104761'
p3985
aS'1606902'
p3986
asS'281929'
p3987
(lp3988
S'713250'
p3989
asS'1509522'
p3990
(lp3991
S'1606902'
p3992
asS'600194'
p3993
(lp3994
S'1774684'
p3995
asS'1051196'
p3996
(lp3997
S'1606902'
p3998
aS'458026'
p3999
aS'754522'
p4000
aS'1760401'
p4001
asS'904627'
p4002
(lp4003
S'1606902'
p4004
asS'999041'
p4005
(lp4006
S'1606902'
p4007
asS'1913740'
p4008
(lp4009
S'1675399'
p4010
aS'1774848'
p4011
aS'1775044'
p4012
aS'1606610'
p4013
aS'2105512'
p4014
aS'713240'
p4015
aS'1950713'
p4016
aS'1775011'
p4017
aS'1902321'
p4018
asS'688081'
p4019
(lp4020
S'1606902'
p4021
asS'1335989'
p4022
(lp4023
S'1606902'
p4024
asS'452383'
p4025
(lp4026
S'1774717'
p4027
asS'1450332'
p4028
(lp4029
S'1606902'
p4030
aS'1775029'
p4031
asS'448478'
p4032
(lp4033
S'1954203'
p4034
asS'1512430'
p4035
(lp4036
S'1902321'
p4037
asS'570613'
p4038
(lp4039
S'647356'
p4040
asS'205680'
p4041
(lp4042
S'1606902'
p4043
asS'489271'
p4044
(lp4045
S'1606902'
p4046
aS'1774505'
p4047
aS'1606717'
p4048
asS'806721'
p4049
(lp4050
S'1606902'
p4051
asS'2031280'
p4052
(lp4053
S'1606902'
p4054
asS'994064'
p4055
(lp4056
S'1331770'
p4057
aS'687359'
p4058
aS'1774522'
p4059
aS'299289'
p4060
aS'646592'
p4061
aS'709795'
p4062
aS'758224'
p4063
aS'1775029'
p4064
aS'2105486'
p4065
aS'1775025'
p4066
aS'577590'
p4067
aS'721665'
p4068
aS'1760401'
p4069
aS'2335872'
p4070
aS'1314490'
p4071
aS'753482'
p4072
aS'798225'
p4073
aS'1760399'
p4074
aS'824521'
p4075
aS'1774972'
p4076
aS'1775045'
p4077
aS'1774641'
p4078
aS'374244'
p4079
aS'879238'
p4080
aS'2105595'
p4081
aS'1334555'
p4082
aS'2163868'
p4083
aS'549664'
p4084
aS'1356507'
p4085
aS'332673'
p4086
aS'520729'
p4087
aS'1760327'
p4088
aS'1774617'
p4089
aS'2335877'
p4090
aS'1775001'
p4091
aS'713244'
p4092
aS'725238'
p4093
aS'1774453'
p4094
aS'1775003'
p4095
aS'746824'
p4096
aS'544276'
p4097
aS'687598'
p4098
aS'173758'
p4099
aS'505220'
p4100
aS'387646'
p4101
aS'561079'
p4102
aS'562882'
p4103
aS'362792'
p4104
aS'618225'
p4105
aS'519049'
p4106
aS'758379'
p4107
aS'100337'
p4108
aS'969219'
p4109
aS'480678'
p4110
aS'713279'
p4111
aS'723114'
p4112
aS'728408'
p4113
aS'538938'
p4114
aS'642089'
p4115
aS'2105336'
p4116
aS'2105511'
p4117
aS'1004622'
p4118
aS'1775102'
p4119
aS'372323'
p4120
aS'1774701'
p4121
aS'1746244'
p4122
aS'1774616'
p4123
aS'1188297'
p4124
aS'794490'
p4125
aS'1023543'
p4126
aS'364911'
p4127
aS'725383'
p4128
aS'1928748'
p4129
aS'2105719'
p4130
aS'1774638'
p4131
aS'1774570'
p4132
aS'2280082'
p4133
aS'446568'
p4134
aS'1774814'
p4135
aS'1774600'
p4136
aS'1775051'
p4137
aS'743511'
p4138
aS'1928675'
p4139
aS'713251'
p4140
aS'630683'
p4141
aS'713239'
p4142
aS'1760363'
p4143
aS'1774532'
p4144
aS'1054968'
p4145
aS'324861'
p4146
aS'1775011'
p4147
aS'1760326'
p4148
aS'1108697'
p4149
aS'533506'
p4150
aS'2105563'
p4151
aS'1791518'
p4152
aS'586592'
p4153
aS'530619'
p4154
aS'572238'
p4155
aS'291065'
p4156
aS'562574'
p4157
aS'741909'
p4158
aS'521169'
p4159
aS'859175'
p4160
aS'693635'
p4161
aS'2339549'
p4162
aS'1561596'
p4163
aS'1606523'
p4164
aS'1774461'
p4165
aS'1021144'
p4166
aS'1452772'
p4167
aS'744976'
p4168
aS'922070'
p4169
aS'387750'
p4170
aS'623203'
p4171
aS'1458847'
p4172
aS'330571'
p4173
aS'1249277'
p4174
aS'1775088'
p4175
aS'715470'
p4176
aS'1343945'
p4177
aS'2105786'
p4178
aS'908591'
p4179
aS'1774454'
p4180
asS'1266352'
p4181
(lp4182
S'1760350'
p4183
aS'1606717'
p4184
asS'411459'
p4185
(lp4186
S'1606902'
p4187
aS'1606717'
p4188
asS'1702657'
p4189
(lp4190
S'1606902'
p4191
asS'450448'
p4192
(lp4193
S'2105515'
p4194
asS'1988113'
p4195
(lp4196
S'1606717'
p4197
asS'1887974'
p4198
(lp4199
S'1606902'
p4200
aS'692306'
p4201
asS'561956'
p4202
(lp4203
S'623203'
p4204
aS'428085'
p4205
aS'1419930'
p4206
aS'1928671'
p4207
asS'1881628'
p4208
(lp4209
S'1606902'
p4210
asS'458585'
p4211
(lp4212
S'1774595'
p4213
aS'1760402'
p4214
aS'1774452'
p4215
aS'1775044'
p4216
aS'2105464'
p4217
aS'1928655'
p4218
asS'1938943'
p4219
(lp4220
S'1606902'
p4221
asS'1702385'
p4222
(lp4223
S'1760403'
p4224
asS'1712322'
p4225
(lp4226
S'1606902'
p4227
aS'218438'
p4228
aS'290927'
p4229
aS'300076'
p4230
aS'1760376'
p4231
aS'1774687'
p4232
aS'1774862'
p4233
aS'683822'
p4234
aS'1760401'
p4235
aS'1774952'
p4236
aS'1760402'
p4237
aS'1774502'
p4238
aS'562574'
p4239
aS'1774996'
p4240
aS'2191024'
p4241
asS'1077059'
p4242
(lp4243
S'1606902'
p4244
asS'513253'
p4245
(lp4246
S'1606902'
p4247
asS'1239359'
p4248
(lp4249
S'1774502'
p4250
asS'1368093'
p4251
(lp4252
S'218438'
p4253
asS'1945000'
p4254
(lp4255
S'1606717'
p4256
asS'885215'
p4257
(lp4258
S'1606717'
p4259
aS'1606902'
p4260
aS'2105489'
p4261
asS'271916'
p4262
(lp4263
S'1775045'
p4264
aS'1774452'
p4265
aS'436442'
p4266
asS'1320533'
p4267
(lp4268
S'1774862'
p4269
aS'1419930'
p4270
aS'1774717'
p4271
aS'458026'
p4272
asS'2017452'
p4273
(lp4274
S'1606902'
p4275
asS'1886239'
p4276
(lp4277
S'1606902'
p4278
asS'1515634'
p4279
(lp4280
S'1606902'
p4281
asS'671842'
p4282
(lp4283
S'1419930'
p4284
aS'478929'
p4285
aS'1760401'
p4286
asS'836933'
p4287
(lp4288
S'2188303'
p4289
asS'553960'
p4290
(lp4291
S'1606902'
p4292
asS'1414760'
p4293
(lp4294
S'1606902'
p4295
aS'1774594'
p4296
asS'1138085'
p4297
(lp4298
S'1349990'
p4299
asS'1204530'
p4300
(lp4301
S'1606902'
p4302
asS'609550'
p4303
(lp4304
S'1774683'
p4305
asS'1498830'
p4306
(lp4307
S'1606902'
p4308
asS'992798'
p4309
(lp4310
S'1606902'
p4311
asS'1077618'
p4312
(lp4313
S'1606902'
p4314
asS'1484594'
p4315
(lp4316
S'1774505'
p4317
aS'1760388'
p4318
aS'1775028'
p4319
asS'1235473'
p4320
(lp4321
S'1775053'
p4322
aS'461796'
p4323
asS'335677'
p4324
(lp4325
S'1606902'
p4326
asS'2042096'
p4327
(lp4328
S'1606609'
p4329
aS'1760402'
p4330
aS'683822'
p4331
aS'623203'
p4332
aS'1760396'
p4333
aS'1774536'
p4334
asS'1273873'
p4335
(lp4336
S'1606717'
p4337
asS'202874'
p4338
(lp4339
S'1606902'
p4340
asS'1859002'
p4341
(lp4342
S'1606902'
p4343
aS'2105561'
p4344
aS'1774816'
p4345
asS'2070334'
p4346
(lp4347
S'436442'
p4348
asS'1882042'
p4349
(lp4350
S'1774717'
p4351
asS'1300685'
p4352
(lp4353
S'1760400'
p4354
asS'230202'
p4355
(lp4356
S'1774925'
p4357
asS'1630502'
p4358
(lp4359
S'456253'
p4360
asS'1213805'
p4361
(lp4362
S'1774684'
p4363
asS'823268'
p4364
(lp4365
S'713254'
p4366
aS'1606902'
p4367
aS'713225'
p4368
aS'1760403'
p4369
aS'1760392'
p4370
aS'539162'
p4371
aS'1606609'
p4372
aS'1760401'
p4373
aS'575662'
p4374
aS'1606610'
p4375
aS'2105583'
p4376
aS'713229'
p4377
aS'519049'
p4378
aS'1760338'
p4379
aS'1775088'
p4380
aS'1760400'
p4381
asS'1610788'
p4382
(lp4383
S'647356'
p4384
aS'458026'
p4385
asS'1610784'
p4386
(lp4387
S'1775025'
p4388
aS'1774692'
p4389
aS'1774594'
p4390
aS'1606717'
p4391
aS'731434'
p4392
asS'400945'
p4393
(lp4394
S'1606902'
p4395
asS'1238004'
p4396
(lp4397
S'1954203'
p4398
aS'1774963'
p4399
asS'302008'
p4400
(lp4401
S'1774595'
p4402
asS'1872100'
p4403
(lp4404
S'1760402'
p4405
asS'661679'
p4406
(lp4407
S'1675399'
p4408
aS'1774862'
p4409
asS'1507520'
p4410
(lp4411
S'1606717'
p4412
asS'901028'
p4413
(lp4414
S'1606902'
p4415
asS'1956835'
p4416
(lp4417
S'1606902'
p4418
asS'1760945'
p4419
(lp4420
S'1774683'
p4421
asS'1760947'
p4422
(lp4423
S'592273'
p4424
asS'1661027'
p4425
(lp4426
S'1606559'
p4427
asS'1784511'
p4428
(lp4429
S'647356'
p4430
asS'1296129'
p4431
(lp4432
S'1606902'
p4433
asS'1764203'
p4434
(lp4435
S'1606902'
p4436
aS'1774717'
p4437
aS'1774505'
p4438
asS'691449'
p4439
(lp4440
S'1774813'
p4441
aS'1774848'
p4442
asS'1410625'
p4443
(lp4444
S'1774594'
p4445
asS'1389586'
p4446
(lp4447
S'1774862'
p4448
aS'1606608'
p4449
asS'1187144'
p4450
(lp4451
S'441554'
p4452
asS'1661115'
p4453
(lp4454
S'1606717'
p4455
asS'811122'
p4456
(lp4457
S'1606717'
p4458
aS'725379'
p4459
asS'1957011'
p4460
(lp4461
S'562882'
p4462
aS'124087'
p4463
asS'585775'
p4464
(lp4465
S'1606902'
p4466
asS'818523'
p4467
(lp4468
S'218438'
p4469
asS'361947'
p4470
(lp4471
S'1760350'
p4472
aS'1837210'
p4473
aS'1774594'
p4474
aS'1775011'
p4475
aS'1774595'
p4476
aS'1902321'
p4477
aS'1774717'
p4478
aS'1774452'
p4479
aS'1775024'
p4480
aS'450517'
p4481
aS'1928675'
p4482
aS'724706'
p4483
aS'692473'
p4484
aS'1760302'
p4485
aS'1606596'
p4486
aS'1760349'
p4487
aS'1669776'
p4488
aS'1622139'
p4489
aS'2105486'
p4490
aS'1774550'
p4491
aS'875014'
p4492
aS'1606610'
p4493
aS'713240'
p4494
aS'1606574'
p4495
aS'2143723'
p4496
aS'1774957'
p4497
aS'1774954'
p4498
asS'1652259'
p4499
(lp4500
S'1606902'
p4501
asS'565651'
p4502
(lp4503
S'1774683'
p4504
asS'1711776'
p4505
(lp4506
S'1774684'
p4507
aS'1774454'
p4508
aS'1774862'
p4509
asS'563776'
p4510
(lp4511
S'1774505'
p4512
asS'1699019'
p4513
(lp4514
S'1606717'
p4515
asS'1890756'
p4516
(lp4517
S'1760353'
p4518
aS'1902321'
p4519
aS'1774684'
p4520
aS'647356'
p4521
aS'1774862'
p4522
aS'713254'
p4523
aS'549866'
p4524
aS'2335873'
p4525
aS'2224167'
p4526
aS'1760356'
p4527
asS'1980900'
p4528
(lp4529
S'1606902'
p4530
asS'216554'
p4531
(lp4532
S'1606902'
p4533
asS'491932'
p4534
(lp4535
S'343522'
p4536
asS'1921120'
p4537
(lp4538
S'549866'
p4539
aS'1774533'
p4540
aS'713254'
p4541
aS'623203'
p4542
asS'1751157'
p4543
(lp4544
S'1606902'
p4545
asS'1771799'
p4546
(lp4547
S'1774594'
p4548
asS'1487376'
p4549
(lp4550
S'1774649'
p4551
asS'934249'
p4552
(lp4553
S'647356'
p4554
asS'759072'
p4555
(lp4556
S'1760377'
p4557
aS'1775011'
p4558
aS'713254'
p4559
aS'647356'
p4560
aS'1606902'
p4561
aS'1121038'
p4562
aS'1775045'
p4563
aS'1606574'
p4564
aS'1760401'
p4565
aS'1774797'
p4566
aS'1928655'
p4567
aS'529918'
p4568
aS'549649'
p4569
aS'133491'
p4570
asS'144120'
p4571
(lp4572
S'1606717'
p4573
aS'1774536'
p4574
aS'1606609'
p4575
asS'639143'
p4576
(lp4577
S'1774595'
p4578
aS'741521'
p4579
asS'1358794'
p4580
(lp4581
S'436442'
p4582
asS'189729'
p4583
(lp4584
S'694649'
p4585
aS'1774996'
p4586
asS'171650'
p4587
(lp4588
S'1606902'
p4589
aS'1902321'
p4590
aS'1775042'
p4591
aS'441554'
p4592
aS'713248'
p4593
aS'1774963'
p4594
aS'1760423'
p4595
asS'1891753'
p4596
(lp4597
S'1606717'
p4598
aS'1760401'
p4599
asS'736263'
p4600
(lp4601
S'1606902'
p4602
asS'861497'
p4603
(lp4604
S'1774862'
p4605
aS'559088'
p4606
aS'1760642'
p4607
asS'282389'
p4608
(lp4609
S'1774684'
p4610
asS'1413920'
p4611
(lp4612
S'1760376'
p4613
aS'1774594'
p4614
aS'1774505'
p4615
aS'683822'
p4616
asS'2021330'
p4617
(lp4618
S'1760328'
p4619
aS'2105484'
p4620
aS'1774550'
p4621
aS'2056921'
p4622
aS'594339'
p4623
aS'167614'
p4624
aS'1760386'
p4625
aS'1606608'
p4626
aS'731389'
p4627
aS'724706'
p4628
aS'1606607'
p4629
asS'873440'
p4630
(lp4631
S'1760403'
p4632
asS'131565'
p4633
(lp4634
S'1760401'
p4635
aS'1775024'
p4636
asS'949982'
p4637
(lp4638
S'1606902'
p4639
aS'513098'
p4640
aS'1774967'
p4641
aS'1774603'
p4642
aS'1775011'
p4643
aS'1774505'
p4644
aS'193952'
p4645
aS'1760642'
p4646
aS'1775024'
p4647
aS'1760350'
p4648
aS'1774595'
p4649
aS'124938'
p4650
aS'1774848'
p4651
aS'646592'
p4652
aS'713254'
p4653
aS'731434'
p4654
aS'754309'
p4655
aS'1775025'
p4656
aS'1760386'
p4657
aS'1774862'
p4658
aS'1760493'
p4659
aS'627961'
p4660
aS'131665'
p4661
aS'1928655'
p4662
aS'1774457'
p4663
aS'2105603'
p4664
aS'2188303'
p4665
aS'2393452'
p4666
aS'441554'
p4667
aS'725238'
p4668
aS'1774649'
p4669
aS'1774718'
p4670
aS'2280082'
p4671
aS'1638658'
p4672
aS'1606717'
p4673
aS'1774692'
p4674
aS'2105550'
p4675
aS'1774539'
p4676
aS'2105484'
p4677
aS'1760410'
p4678
aS'1775013'
p4679
aS'329662'
p4680
aS'1774520'
p4681
aS'778749'
p4682
aS'624922'
p4683
aS'2404454'
p4684
aS'760113'
p4685
aS'1760363'
p4686
aS'709795'
p4687
aS'1386531'
p4688
aS'1606474'
p4689
aS'1774504'
p4690
aS'1774925'
p4691
aS'1774796'
p4692
aS'300076'
p4693
aS'443650'
p4694
aS'2105362'
p4695
aS'1774462'
p4696
aS'1606600'
p4697
aS'172508'
p4698
aS'1774550'
p4699
aS'1774502'
p4700
aS'623203'
p4701
aS'859175'
p4702
aS'955520'
p4703
aS'1774594'
p4704
aS'444336'
p4705
aS'1453556'
p4706
aS'713166'
p4707
aS'1774954'
p4708
aS'586592'
p4709
aS'1760423'
p4710
aS'1774799'
p4711
aS'1774461'
p4712
aS'1760650'
p4713
aS'1775042'
p4714
aS'1760377'
p4715
aS'952936'
p4716
aS'713248'
p4717
aS'1586439'
p4718
aS'594200'
p4719
asS'1412526'
p4720
(lp4721
S'1606902'
p4722
asS'1018990'
p4723
(lp4724
S'1775042'
p4725
asS'1587099'
p4726
(lp4727
S'2169800'
p4728
asS'294882'
p4729
(lp4730
S'1774717'
p4731
asS'642705'
p4732
(lp4733
S'1606902'
p4734
asS'1570692'
p4735
(lp4736
S'1675399'
p4737
aS'1774972'
p4738
aS'1606902'
p4739
aS'1774797'
p4740
aS'2105603'
p4741
aS'1774963'
p4742
asS'634506'
p4743
(lp4744
S'701886'
p4745
aS'189426'
p4746
aS'1775025'
p4747
asS'183913'
p4748
(lp4749
S'1606717'
p4750
asS'1282336'
p4751
(lp4752
S'1760328'
p4753
asS'813439'
p4754
(lp4755
S'727324'
p4756
aS'713239'
p4757
aS'1606717'
p4758
aS'563514'
p4759
asS'843566'
p4760
(lp4761
S'1606717'
p4762
asS'1616425'
p4763
(lp4764
S'1606902'
p4765
asS'1865089'
p4766
(lp4767
S'1606717'
p4768
asS'1554185'
p4769
(lp4770
S'1606717'
p4771
asS'870781'
p4772
(lp4773
S'1606902'
p4774
aS'1774952'
p4775
aS'1775098'
p4776
asS'304393'
p4777
(lp4778
S'1837210'
p4779
asS'965376'
p4780
(lp4781
S'1774717'
p4782
asS'1594020'
p4783
(lp4784
S'1775024'
p4785
aS'586592'
p4786
aS'1606902'
p4787
asS'289425'
p4788
(lp4789
S'721665'
p4790
asS'573321'
p4791
(lp4792
S'1419930'
p4793
asS'407495'
p4794
(lp4795
S'687441'
p4796
asS'1396991'
p4797
(lp4798
S'1774505'
p4799
asS'520876'
p4800
(lp4801
S'1606902'
p4802
asS'1700824'
p4803
(lp4804
S'1760402'
p4805
asS'224831'
p4806
(lp4807
S'1774452'
p4808
asS'602455'
p4809
(lp4810
S'1528881'
p4811
asS'1487026'
p4812
(lp4813
S'1419930'
p4814
asS'929677'
p4815
(lp4816
S'1606902'
p4817
asS'312872'
p4818
(lp4819
S'218438'
p4820
aS'2105486'
p4821
aS'504783'
p4822
aS'2105598'
p4823
aS'1928678'
p4824
aS'1774505'
p4825
aS'1606902'
p4826
aS'1774862'
p4827
aS'1774540'
p4828
aS'1760338'
p4829
aS'713240'
p4830
aS'1774963'
p4831
aS'1606609'
p4832
aS'713250'
p4833
aS'2105489'
p4834
aS'713248'
p4835
asS'854168'
p4836
(lp4837
S'1606902'
p4838
asS'1057291'
p4839
(lp4840
S'1774595'
p4841
aS'1775024'
p4842
aS'1774589'
p4843
aS'1606609'
p4844
aS'1606902'
p4845
aS'218438'
p4846
asS'1013778'
p4847
(lp4848
S'1760320'
p4849
asS'1045334'
p4850
(lp4851
S'1606902'
p4852
asS'1795841'
p4853
(lp4854
S'1606717'
p4855
asS'676472'
p4856
(lp4857
S'1775042'
p4858
asS'1204504'
p4859
(lp4860
S'1606902'
p4861
asS'128757'
p4862
(lp4863
S'1606902'
p4864
asS'1501563'
p4865
(lp4866
S'1774862'
p4867
asS'2079566'
p4868
(lp4869
S'1606902'
p4870
asS'1488280'
p4871
(lp4872
S'1606902'
p4873
aS'1774722'
p4874
asS'326504'
p4875
(lp4876
S'1775024'
p4877
asS'1893053'
p4878
(lp4879
S'1606902'
p4880
asS'1959240'
p4881
(lp4882
S'1774969'
p4883
aS'1774781'
p4884
asS'371857'
p4885
(lp4886
S'1774717'
p4887
asS'1463009'
p4888
(lp4889
S'1606902'
p4890
asS'1647531'
p4891
(lp4892
S'1606717'
p4893
asS'1203048'
p4894
(lp4895
S'563514'
p4896
asS'1123698'
p4897
(lp4898
S'665932'
p4899
aS'2105466'
p4900
aS'1775003'
p4901
aS'1760362'
p4902
aS'1870054'
p4903
aS'1760642'
p4904
asS'1746491'
p4905
(lp4906
S'647356'
p4907
asS'232091'
p4908
(lp4909
S'1606717'
p4910
asS'1682087'
p4911
(lp4912
S'1606902'
p4913
asS'727497'
p4914
(lp4915
S'1606717'
p4916
asS'260174'
p4917
(lp4918
S'1606902'
p4919
asS'1833391'
p4920
(lp4921
S'1774687'
p4922
aS'1774972'
p4923
aS'1784713'
p4924
aS'1774678'
p4925
aS'1774589'
p4926
aS'1774787'
p4927
aS'416654'
p4928
aS'731434'
p4929
asS'1011937'
p4930
(lp4931
S'1606902'
p4932
asS'931602'
p4933
(lp4934
S'1419930'
p4935
asS'1776220'
p4936
(lp4937
S'1760402'
p4938
asS'534115'
p4939
(lp4940
S'436442'
p4941
asS'1849734'
p4942
(lp4943
S'647356'
p4944
aS'1606607'
p4945
asS'460552'
p4946
(lp4947
S'1775011'
p4948
aS'1774594'
p4949
asS'1111191'
p4950
(lp4951
S'1760642'
p4952
asS'849367'
p4953
(lp4954
S'218438'
p4955
aS'1774969'
p4956
aS'1760642'
p4957
asS'1327177'
p4958
(lp4959
S'2335873'
p4960
aS'1775024'
p4961
aS'428085'
p4962
asS'694237'
p4963
(lp4964
S'562574'
p4965
aS'1774594'
p4966
aS'563514'
p4967
asS'519677'
p4968
(lp4969
S'1606902'
p4970
aS'1606717'
p4971
aS'2105598'
p4972
aS'338764'
p4973
asS'1099650'
p4974
(lp4975
S'1606902'
p4976
asS'1805379'
p4977
(lp4978
S'741909'
p4979
asS'1658274'
p4980
(lp4981
S'1606717'
p4982
asS'814235'
p4983
(lp4984
S'1606574'
p4985
asS'477285'
p4986
(lp4987
S'458026'
p4988
asS'752324'
p4989
(lp4990
S'1606902'
p4991
asS'596524'
p4992
(lp4993
S'458026'
p4994
aS'1760377'
p4995
aS'2335873'
p4996
aS'1760401'
p4997
aS'1774862'
p4998
aS'1760403'
p4999
aS'1774509'
p5000
aS'562574'
p5001
aS'2105465'
p5002
asS'955490'
p5003
(lp5004
S'1774463'
p5005
aS'922070'
p5006
aS'1774613'
p5007
aS'1774713'
p5008
aS'1606902'
p5009
aS'1774591'
p5010
aS'1606609'
p5011
aS'713228'
p5012
aS'2105484'
p5013
aS'1774534'
p5014
aS'1774848'
p5015
aS'1774687'
p5016
aS'340181'
p5017
aS'456253'
p5018
aS'1606474'
p5019
aS'713254'
p5020
aS'2105561'
p5021
asS'360376'
p5022
(lp5023
S'1606902'
p5024
asS'343762'
p5025
(lp5026
S'1606574'
p5027
aS'1774461'
p5028
aS'683822'
p5029
aS'1774455'
p5030
aS'1775011'
p5031
aS'493966'
p5032
aS'1774452'
p5033
aS'1774722'
p5034
aS'1837210'
p5035
asS'462130'
p5036
(lp5037
S'1606610'
p5038
aS'1775028'
p5039
asS'1006506'
p5040
(lp5041
S'704241'
p5042
aS'1774862'
p5043
aS'1760350'
p5044
aS'1932882'
p5045
aS'1774455'
p5046
aS'2105514'
p5047
aS'552675'
p5048
aS'1774463'
p5049
asS'1021180'
p5050
(lp5051
S'1760350'
p5052
aS'1606902'
p5053
aS'1774452'
p5054
aS'1774862'
p5055
aS'1760388'
p5056
asS'564621'
p5057
(lp5058
S'1774963'
p5059
aS'859175'
p5060
asS'1910452'
p5061
(lp5062
S'458026'
p5063
asS'1889865'
p5064
(lp5065
S'1774505'
p5066
asS'1399889'
p5067
(lp5068
S'1774862'
p5069
aS'1774717'
p5070
asS'496116'
p5071
(lp5072
S'1774862'
p5073
asS'1966148'
p5074
(lp5075
S'2105561'
p5076
aS'2224167'
p5077
aS'218438'
p5078
aS'1606608'
p5079
aS'754522'
p5080
aS'1775042'
p5081
aS'1606610'
p5082
aS'1760356'
p5083
aS'2105599'
p5084
aS'1606609'
p5085
aS'1095970'
p5086
aS'724706'
p5087
aS'1954203'
p5088
aS'2012081'
p5089
aS'2105598'
p5090
aS'1606607'
p5091
aS'2105569'
p5092
aS'131665'
p5093
aS'1606574'
p5094
aS'1774534'
p5095
aS'529228'
p5096
aS'1606902'
p5097
aS'1774603'
p5098
aS'2008547'
p5099
aS'2105575'
p5100
aS'731434'
p5101
aS'2105486'
p5102
aS'1606600'
p5103
aS'2105465'
p5104
aS'713219'
p5105
aS'694649'
p5106
aS'1774848'
p5107
aS'372259'
p5108
aS'759501'
p5109
aS'1655644'
p5110
aS'441554'
p5111
aS'1774502'
p5112
aS'426750'
p5113
aS'683822'
p5114
aS'725379'
p5115
aS'674753'
p5116
aS'1774706'
p5117
aS'1928678'
p5118
aS'563514'
p5119
aS'824521'
p5120
aS'2105547'
p5121
aS'2105514'
p5122
aS'1760327'
p5123
aS'462104'
p5124
aS'1606717'
p5125
aS'1760654'
p5126
aS'2105515'
p5127
aS'682877'
p5128
aS'1606552'
p5129
aS'1774505'
p5130
aS'647225'
p5131
aS'713251'
p5132
aS'1837210'
p5133
aS'1760350'
p5134
aS'725183'
p5135
aS'1775001'
p5136
aS'1774594'
p5137
aS'1775044'
p5138
aS'1775024'
p5139
aS'1774452'
p5140
aS'627961'
p5141
aS'1675399'
p5142
aS'1760376'
p5143
aS'727272'
p5144
aS'2105482'
p5145
aS'1774457'
p5146
aS'713240'
p5147
aS'2105464'
p5148
aS'1331770'
p5149
aS'724489'
p5150
aS'713229'
p5151
aS'1760405'
p5152
aS'1606515'
p5153
aS'704241'
p5154
aS'723577'
p5155
aS'1774799'
p5156
aS'2105458'
p5157
asS'1259690'
p5158
(lp5159
S'1675399'
p5160
aS'1419930'
p5161
aS'1774505'
p5162
aS'1775045'
p5163
aS'1774594'
p5164
asS'803845'
p5165
(lp5166
S'1606902'
p5167
aS'2105465'
p5168
asS'1661637'
p5169
(lp5170
S'682877'
p5171
asS'226972'
p5172
(lp5173
S'1774536'
p5174
aS'647356'
p5175
asS'1831659'
p5176
(lp5177
S'1606902'
p5178
aS'1774595'
p5179
aS'682877'
p5180
aS'1774452'
p5181
aS'694649'
p5182
asS'1687631'
p5183
(lp5184
S'1774862'
p5185
aS'1774684'
p5186
aS'1774967'
p5187
asS'1780976'
p5188
(lp5189
S'1760402'
p5190
asS'1884685'
p5191
(lp5192
S'1760398'
p5193
asS'1345006'
p5194
(lp5195
S'1606902'
p5196
aS'2224167'
p5197
asS'1685523'
p5198
(lp5199
S'172508'
p5200
asS'1787888'
p5201
(lp5202
S'1606902'
p5203
asS'1827544'
p5204
(lp5205
S'1606717'
p5206
asS'1532779'
p5207
(lp5208
S'1775024'
p5209
aS'1775058'
p5210
aS'713254'
p5211
asS'1665027'
p5212
(lp5213
S'2105362'
p5214
asS'1590912'
p5215
(lp5216
S'1606902'
p5217
aS'441554'
p5218
asS'713343'
p5219
(lp5220
S'563514'
p5221
aS'1760398'
p5222
asS'1181645'
p5223
(lp5224
S'1774692'
p5225
aS'2393452'
p5226
aS'2105484'
p5227
aS'1774706'
p5228
aS'2105561'
p5229
aS'436442'
p5230
aS'1774536'
p5231
aS'1774687'
p5232
aS'331320'
p5233
aS'329662'
p5234
aS'577590'
p5235
aS'1606610'
p5236
aS'530619'
p5237
aS'549866'
p5238
aS'624922'
p5239
aS'378617'
p5240
aS'1774482'
p5241
aS'559957'
p5242
aS'1775011'
p5243
aS'1606717'
p5244
asS'1333314'
p5245
(lp5246
S'1760402'
p5247
aS'1760361'
p5248
asS'1074504'
p5249
(lp5250
S'1606902'
p5251
aS'1760398'
p5252
aS'1774595'
p5253
aS'2105599'
p5254
aS'502744'
p5255
aS'1775025'
p5256
aS'1774452'
p5257
aS'1837210'
p5258
aS'563514'
p5259
asS'1916901'
p5260
(lp5261
S'1606902'
p5262
asS'446323'
p5263
(lp5264
S'1774717'
p5265
asS'135379'
p5266
(lp5267
S'1775024'
p5268
aS'1606610'
p5269
aS'1760401'
p5270
aS'682877'
p5271
aS'1775011'
p5272
asS'1193071'
p5273
(lp5274
S'1760401'
p5275
asS'1517107'
p5276
(lp5277
S'1606902'
p5278
aS'1760654'
p5279
aS'1675399'
p5280
aS'365294'
p5281
aS'1760388'
p5282
aS'1606717'
p5283
aS'713228'
p5284
aS'1774520'
p5285
aS'1774800'
p5286
aS'1760320'
p5287
aS'1774960'
p5288
aS'458026'
p5289
aS'665939'
p5290
aS'1774849'
p5291
aS'1902321'
p5292
asS'1788986'
p5293
(lp5294
S'1606902'
p5295
asS'1920170'
p5296
(lp5297
S'1606902'
p5298
asS'326647'
p5299
(lp5300
S'1606902'
p5301
aS'1775044'
p5302
aS'1606609'
p5303
asS'1700753'
p5304
(lp5305
S'1932882'
p5306
aS'478929'
p5307
asS'1989353'
p5308
(lp5309
S'1774595'
p5310
asS'1031669'
p5311
(lp5312
S'1760398'
p5313
asS'1135938'
p5314
(lp5315
S'1606902'
p5316
aS'1606717'
p5317
asS'104205'
p5318
(lp5319
S'1774960'
p5320
aS'1760301'
p5321
aS'539162'
p5322
aS'2105484'
p5323
aS'1791518'
p5324
aS'713260'
p5325
aS'828384'
p5326
aS'1606902'
p5327
aS'1606525'
p5328
aS'1760410'
p5329
aS'586592'
p5330
aS'631794'
p5331
aS'725379'
p5332
aS'1774613'
p5333
aS'233300'
p5334
aS'493966'
p5335
aS'665932'
p5336
aS'735033'
p5337
aS'728408'
p5338
aS'1774625'
p5339
aS'1349990'
p5340
aS'1760403'
p5341
aS'2280082'
p5342
aS'1774446'
p5343
aS'1774532'
p5344
aS'1774712'
p5345
aS'1774533'
p5346
aS'1774539'
p5347
aS'1774677'
p5348
aS'572220'
p5349
aS'1950713'
p5350
aS'1760308'
p5351
aS'762768'
p5352
aS'1774638'
p5353
aS'1774692'
p5354
aS'1606523'
p5355
aS'1774789'
p5356
aS'1774796'
p5357
aS'2404454'
p5358
aS'713225'
p5359
aS'1774540'
p5360
aS'1774977'
p5361
aS'647225'
p5362
aS'533506'
p5363
aS'431499'
p5364
aS'1204103'
p5365
aS'1760650'
p5366
aS'1774707'
p5367
aS'1223658'
p5368
aS'1774603'
p5369
aS'1760358'
p5370
aS'704241'
p5371
aS'2105559'
p5372
aS'387750'
p5373
aS'713282'
p5374
aS'1760405'
p5375
aS'1774787'
p5376
aS'2010338'
p5377
asS'1979356'
p5378
(lp5379
S'1774963'
p5380
aS'694649'
p5381
asS'378171'
p5382
(lp5383
S'1775024'
p5384
aS'647356'
p5385
aS'682877'
p5386
aS'436442'
p5387
asS'1061234'
p5388
(lp5389
S'1606902'
p5390
asS'1217036'
p5391
(lp5392
S'1606902'
p5393
aS'1774848'
p5394
aS'567505'
p5395
aS'1774509'
p5396
aS'1775040'
p5397
aS'1675399'
p5398
aS'592273'
p5399
aS'724644'
p5400
asS'1829349'
p5401
(lp5402
S'458026'
p5403
asS'973140'
p5404
(lp5405
S'1606717'
p5406
asS'1371206'
p5407
(lp5408
S'1606902'
p5409
aS'1774963'
p5410
aS'1775024'
p5411
aS'1760350'
p5412
asS'1420934'
p5413
(lp5414
S'594200'
p5415
aS'1774692'
p5416
aS'1774717'
p5417
aS'1774706'
p5418
aS'428085'
p5419
aS'2105580'
p5420
aS'2105598'
p5421
aS'683822'
p5422
aS'300076'
p5423
aS'727232'
p5424
aS'1760350'
p5425
aS'1774957'
p5426
aS'1775045'
p5427
aS'631206'
p5428
aS'1775014'
p5429
aS'316302'
p5430
aS'1774613'
p5431
aS'741909'
p5432
aS'124938'
p5433
aS'713260'
p5434
aS'1954203'
p5435
aS'373065'
p5436
aS'1606609'
p5437
aS'778749'
p5438
aS'1774536'
p5439
aS'461938'
p5440
aS'536237'
p5441
aS'1760353'
p5442
aS'2105603'
p5443
aS'1774684'
p5444
aS'2105501'
p5445
asS'1864305'
p5446
(lp5447
S'1606902'
p5448
aS'2105603'
p5449
aS'458026'
p5450
aS'1760376'
p5451
aS'1837210'
p5452
aS'1606717'
p5453
aS'1774540'
p5454
aS'1760363'
p5455
aS'1775044'
p5456
aS'511428'
p5457
aS'1774705'
p5458
aS'2105489'
p5459
aS'2287260'
p5460
aS'647356'
p5461
aS'1760350'
p5462
aS'338264'
p5463
aS'2105484'
p5464
aS'461700'
p5465
aS'431499'
p5466
aS'1775011'
p5467
aS'694649'
p5468
aS'1774462'
p5469
aS'1774649'
p5470
aS'338764'
p5471
aS'1760338'
p5472
aS'1928678'
p5473
aS'1760400'
p5474
aS'1774796'
p5475
aS'480678'
p5476
aS'1774717'
p5477
aS'1774969'
p5478
aS'1760388'
p5479
aS'1774505'
p5480
aS'1774862'
p5481
aS'562574'
p5482
aS'1774706'
p5483
aS'1606474'
p5484
aS'1774789'
p5485
aS'1954203'
p5486
asS'1200183'
p5487
(lp5488
S'1606902'
p5489
asS'1719013'
p5490
(lp5491
S'731389'
p5492
asS'1984495'
p5493
(lp5494
S'2188303'
p5495
aS'1760326'
p5496
asS'898382'
p5497
(lp5498
S'1606717'
p5499
aS'1774684'
p5500
asS'786274'
p5501
(lp5502
S'1606607'
p5503
asS'1422877'
p5504
(lp5505
S'421653'
p5506
asS'670010'
p5507
(lp5508
S'1606902'
p5509
asS'1243824'
p5510
(lp5511
S'1606902'
p5512
aS'1760363'
p5513
aS'1774684'
p5514
aS'1775011'
p5515
aS'1837210'
p5516
aS'1774457'
p5517
aS'338764'
p5518
aS'2105598'
p5519
asS'1151853'
p5520
(lp5521
S'2224167'
p5522
aS'218438'
p5523
aS'1760350'
p5524
aS'1760401'
p5525
aS'1774959'
p5526
aS'1606902'
p5527
aS'1675399'
p5528
aS'1774969'
p5529
aS'458026'
p5530
aS'1954203'
p5531
aS'927900'
p5532
aS'1774705'
p5533
aS'1908524'
p5534
aS'713240'
p5535
aS'647356'
p5536
aS'778749'
p5537
aS'120002'
p5538
aS'131665'
p5539
aS'1606609'
p5540
aS'2335873'
p5541
aS'1760353'
p5542
aS'1760654'
p5543
aS'2105482'
p5544
aS'135294'
p5545
aS'1606574'
p5546
aS'1774717'
p5547
aS'263319'
p5548
aS'723577'
p5549
aS'1760403'
p5550
aS'322553'
p5551
aS'540920'
p5552
aS'173758'
p5553
aS'462104'
p5554
aS'1928655'
p5555
aS'329662'
p5556
aS'569731'
p5557
aS'1774684'
p5558
aS'1775076'
p5559
aS'727272'
p5560
aS'1774452'
p5561
aS'1870054'
p5562
aS'441554'
p5563
aS'1606515'
p5564
aS'1775011'
p5565
aS'1349990'
p5566
aS'1774999'
p5567
aS'565144'
p5568
aS'1760320'
p5569
aS'1774963'
p5570
aS'405177'
p5571
aS'172508'
p5572
aS'1760399'
p5573
aS'1760388'
p5574
aS'1774797'
p5575
aS'1760377'
p5576
aS'1774706'
p5577
aS'1606717'
p5578
aS'1774520'
p5579
aS'683822'
p5580
aS'1774613'
p5581
aS'1774687'
p5582
aS'1774934'
p5583
aS'374076'
p5584
aS'1774454'
p5585
aS'1774796'
p5586
aS'193952'
p5587
aS'2188303'
p5588
aS'402636'
p5589
aS'1775042'
p5590
aS'1876172'
p5591
aS'1447020'
p5592
aS'1774692'
p5593
aS'1775024'
p5594
aS'1791518'
p5595
aS'2105468'
p5596
aS'2393452'
p5597
aS'665932'
p5598
aS'754522'
p5599
asS'1392193'
p5600
(lp5601
S'218438'
p5602
aS'1675399'
p5603
aS'1760642'
p5604
asS'1428710'
p5605
(lp5606
S'1606902'
p5607
asS'2059276'
p5608
(lp5609
S'1760320'
p5610
asS'859846'
p5611
(lp5612
S'741521'
p5613
aS'1774594'
p5614
asS'501173'
p5615
(lp5616
S'1606902'
p5617
asS'1524377'
p5618
(lp5619
S'1606902'
p5620
aS'1760403'
p5621
aS'1606717'
p5622
asS'868087'
p5623
(lp5624
S'1606902'
p5625
asS'723572'
p5626
(lp5627
S'1606902'
p5628
aS'2105598'
p5629
asS'364884'
p5630
(lp5631
S'1606902'
p5632
asS'1626129'
p5633
(lp5634
S'1954203'
p5635
aS'621735'
p5636
aS'713260'
p5637
aS'1760376'
p5638
aS'2105561'
p5639
aS'1774848'
p5640
aS'1606717'
p5641
aS'1774482'
p5642
aS'431499'
p5643
aS'539162'
p5644
aS'646592'
p5645
aS'713254'
p5646
aS'1760354'
p5647
aS'1760386'
p5648
asS'1775310'
p5649
(lp5650
S'1606902'
p5651
asS'1955937'
p5652
(lp5653
S'1774972'
p5654
asS'515594'
p5655
(lp5656
S'1606717'
p5657
aS'1774594'
p5658
aS'647356'
p5659
aS'1774452'
p5660
aS'218438'
p5661
aS'1774692'
p5662
asS'1686179'
p5663
(lp5664
S'683679'
p5665
aS'520759'
p5666
asS'802373'
p5667
(lp5668
S'1774539'
p5669
asS'1162909'
p5670
(lp5671
S'1606902'
p5672
aS'1774684'
p5673
aS'1774954'
p5674
aS'1775011'
p5675
aS'1774452'
p5676
aS'520759'
p5677
aS'1774505'
p5678
aS'1774996'
p5679
aS'2105349'
p5680
aS'1760388'
p5681
aS'1774594'
p5682
aS'1774848'
p5683
aS'1928678'
p5684
aS'1774717'
p5685
aS'1775042'
p5686
aS'2105598'
p5687
aS'218438'
p5688
aS'1606717'
p5689
aS'1760399'
p5690
aS'1774718'
p5691
aS'1774687'
p5692
aS'1774722'
p5693
aS'1774862'
p5694
aS'1774705'
p5695
aS'1774692'
p5696
aS'1837210'
p5697
aS'1902321'
p5698
aS'1760320'
p5699
aS'1954203'
p5700
aS'2393452'
p5701
aS'1675399'
p5702
aS'2105603'
p5703
aS'1774599'
p5704
aS'1760350'
p5705
aS'513098'
p5706
aS'1606515'
p5707
aS'1774595'
p5708
aS'1774502'
p5709
aS'1775013'
p5710
aS'441554'
p5711
aS'570431'
p5712
aS'1774957'
p5713
aS'1760403'
p5714
aS'562574'
p5715
aS'1774776'
p5716
aS'713248'
p5717
asS'1722882'
p5718
(lp5719
S'1775011'
p5720
asS'1032315'
p5721
(lp5722
S'647356'
p5723
asS'1392286'
p5724
(lp5725
S'493966'
p5726
asS'2087421'
p5727
(lp5728
S'1774717'
p5729
aS'1675399'
p5730
aS'1775024'
p5731
asS'755401'
p5732
(lp5733
S'1774540'
p5734
aS'1760354'
p5735
aS'173758'
p5736
asS'653682'
p5737
(lp5738
S'1954203'
p5739
asS'1077458'
p5740
(lp5741
S'1675399'
p5742
asS'1738604'
p5743
(lp5744
S'1606902'
p5745
aS'1606717'
p5746
aS'1775011'
p5747
aS'724526'
p5748
asS'1494656'
p5749
(lp5750
S'647356'
p5751
asS'1822674'
p5752
(lp5753
S'1606902'
p5754
aS'1774505'
p5755
aS'2105598'
p5756
aS'1760642'
p5757
aS'1837210'
p5758
aS'2105489'
p5759
aS'218438'
p5760
asS'2061650'
p5761
(lp5762
S'1606902'
p5763
asS'1996567'
p5764
(lp5765
S'1606902'
p5766
aS'1606717'
p5767
asS'805279'
p5768
(lp5769
S'713251'
p5770
asS'1444275'
p5771
(lp5772
S'1606902'
p5773
aS'1760350'
p5774
asS'2041034'
p5775
(lp5776
S'799129'
p5777
asS'1238151'
p5778
(lp5779
S'1606574'
p5780
asS'1962078'
p5781
(lp5782
S'1606902'
p5783
asS'1357347'
p5784
(lp5785
S'640892'
p5786
aS'1774789'
p5787
asS'1138208'
p5788
(lp5789
S'458026'
p5790
asS'1740920'
p5791
(lp5792
S'1774717'
p5793
asS'1138203'
p5794
(lp5795
S'218438'
p5796
asS'518409'
p5797
(lp5798
S'1774452'
p5799
asS'1417421'
p5800
(lp5801
S'1606902'
p5802
asS'1888010'
p5803
(lp5804
S'1606717'
p5805
asS'997531'
p5806
(lp5807
S'1606902'
p5808
asS'884897'
p5809
(lp5810
S'1606902'
p5811
asS'898164'
p5812
(lp5813
S'1606717'
p5814
asS'1257569'
p5815
(lp5816
S'1760350'
p5817
asS'1117012'
p5818
(lp5819
S'1606902'
p5820
aS'1774963'
p5821
asS'863193'
p5822
(lp5823
S'1675399'
p5824
asS'1777143'
p5825
(lp5826
S'1606902'
p5827
asS'706784'
p5828
(lp5829
S'1606902'
p5830
asS'1596198'
p5831
(lp5832
S'1606902'
p5833
asS'1451400'
p5834
(lp5835
S'1606717'
p5836
aS'1606902'
p5837
aS'1775011'
p5838
asS'194407'
p5839
(lp5840
S'1606902'
p5841
asS'837046'
p5842
(lp5843
S'1606902'
p5844
asS'540705'
p5845
(lp5846
S'2105599'
p5847
asS'1785041'
p5848
(lp5849
S'1606902'
p5850
asS'725932'
p5851
(lp5852
S'1774963'
p5853
asS'252785'
p5854
(lp5855
S'1774452'
p5856
asS'447201'
p5857
(lp5858
S'1606902'
p5859
asS'804382'
p5860
(lp5861
S'1606609'
p5862
aS'1606717'
p5863
asS'569546'
p5864
(lp5865
S'922070'
p5866
asS'400854'
p5867
(lp5868
S'1774862'
p5869
asS'1020202'
p5870
(lp5871
S'1606902'
p5872
asS'1161471'
p5873
(lp5874
S'1774452'
p5875
aS'1837210'
p5876
aS'2105511'
p5877
aS'754522'
p5878
asS'336816'
p5879
(lp5880
S'1606902'
p5881
asS'1434148'
p5882
(lp5883
S'1606717'
p5884
asS'1593496'
p5885
(lp5886
S'1606902'
p5887
asS'2015168'
p5888
(lp5889
S'1606902'
p5890
asS'1877841'
p5891
(lp5892
S'1606902'
p5893
aS'1775044'
p5894
aS'1774776'
p5895
aS'1774684'
p5896
aS'1606600'
p5897
asS'479459'
p5898
(lp5899
S'436442'
p5900
asS'160611'
p5901
(lp5902
S'1774594'
p5903
aS'1760422'
p5904
aS'1775024'
p5905
aS'2066856'
p5906
aS'458026'
p5907
aS'1774963'
p5908
aS'731434'
p5909
aS'1774797'
p5910
asS'1236864'
p5911
(lp5912
S'1606902'
p5913
aS'1775024'
p5914
asS'725686'
p5915
(lp5916
S'2012081'
p5917
aS'218438'
p5918
asS'2050398'
p5919
(lp5920
S'1606902'
p5921
asS'1720037'
p5922
(lp5923
S'1606902'
p5924
asS'880765'
p5925
(lp5926
S'382132'
p5927
asS'778568'
p5928
(lp5929
S'682877'
p5930
asS'2082675'
p5931
(lp5932
S'1774684'
p5933
aS'633220'
p5934
aS'727272'
p5935
aS'1675399'
p5936
aS'1774449'
p5937
aS'218438'
p5938
aS'256225'
p5939
aS'1386531'
p5940
aS'1108697'
p5941
aS'1774707'
p5942
asS'284281'
p5943
(lp5944
S'1774520'
p5945
asS'696077'
p5946
(lp5947
S'1774969'
p5948
aS'1606717'
p5949
asS'1243692'
p5950
(lp5951
S'1606717'
p5952
asS'561414'
p5953
(lp5954
S'1606902'
p5955
aS'694649'
p5956
aS'436442'
p5957
aS'754522'
p5958
asS'1254547'
p5959
(lp5960
S'1249672'
p5961
aS'1760356'
p5962
aS'1775045'
p5963
aS'2105599'
p5964
aS'646592'
p5965
aS'1774683'
p5966
aS'330571'
p5967
aS'1774952'
p5968
aS'651131'
p5969
aS'605716'
p5970
aS'513098'
p5971
aS'698823'
p5972
aS'1760364'
p5973
aS'713250'
p5974
aS'1606610'
p5975
aS'1774633'
p5976
aS'1760349'
p5977
aS'728408'
p5978
aS'1774507'
p5979
aS'1774705'
p5980
aS'1774580'
p5981
aS'1774954'
p5982
aS'1950713'
p5983
aS'372323'
p5984
aS'1004622'
p5985
aS'2105595'
p5986
aS'1928678'
p5987
aS'636722'
p5988
aS'724984'
p5989
aS'1774482'
p5990
aS'1349806'
p5991
aS'1774522'
p5992
aS'2287260'
p5993
aS'725373'
p5994
aS'713291'
p5995
aS'681085'
p5996
aS'1774707'
p5997
aS'723114'
p5998
aS'559957'
p5999
aS'1108697'
p6000
aS'2105575'
p6001
aS'324861'
p6002
aS'577590'
p6003
aS'2105547'
p6004
aS'1775102'
p6005
aS'1928728'
p6006
aS'651589'
p6007
aS'291065'
p6008
aS'1760362'
p6009
aS'726949'
p6010
aS'727232'
p6011
aS'1606540'
p6012
aS'1606606'
p6013
aS'741521'
p6014
aS'2105579'
p6015
aS'1054968'
p6016
aS'930749'
p6017
aS'1760617'
p6018
aS'1774408'
p6019
aS'1760618'
p6020
aS'361221'
p6021
aS'401062'
p6022
aS'1774682'
p6023
aS'1760337'
p6024
aS'2338682'
p6025
aS'1121038'
p6026
aS'1760396'
p6027
aS'1774449'
p6028
aS'1835624'
p6029
aS'1249277'
p6030
aS'2105777'
p6031
aS'1774856'
p6032
aS'1928724'
p6033
aS'1072738'
p6034
aS'1774940'
p6035
asS'1535286'
p6036
(lp6037
S'1606902'
p6038
asS'1214824'
p6039
(lp6040
S'1774684'
p6041
asS'1574275'
p6042
(lp6043
S'1774797'
p6044
asS'1469686'
p6045
(lp6046
S'1775029'
p6047
asS'1891994'
p6048
(lp6049
S'1928678'
p6050
aS'1675399'
p6051
asS'1662062'
p6052
(lp6053
S'218438'
p6054
asS'222985'
p6055
(lp6056
S'1606902'
p6057
asS'872865'
p6058
(lp6059
S'1606717'
p6060
aS'1774594'
p6061
asS'1792845'
p6062
(lp6063
S'1606717'
p6064
asS'1479624'
p6065
(lp6066
S'754522'
p6067
aS'2105599'
p6068
aS'1775042'
p6069
asS'1311129'
p6070
(lp6071
S'1760402'
p6072
asS'774720'
p6073
(lp6074
S'2012081'
p6075
asS'1309473'
p6076
(lp6077
S'441411'
p6078
asS'1916622'
p6079
(lp6080
S'930749'
p6081
asS'857887'
p6082
(lp6083
S'1606902'
p6084
aS'1606717'
p6085
asS'180466'
p6086
(lp6087
S'1606902'
p6088
asS'594107'
p6089
(lp6090
S'1760350'
p6091
asS'1088355'
p6092
(lp6093
S'1774505'
p6094
aS'1760376'
p6095
aS'2105598'
p6096
aS'1775024'
p6097
asS'624847'
p6098
(lp6099
S'1606902'
p6100
aS'1760350'
p6101
aS'2117779'
p6102
aS'682877'
p6103
asS'117824'
p6104
(lp6105
S'1606902'
p6106
asS'1870087'
p6107
(lp6108
S'1774520'
p6109
asS'754300'
p6110
(lp6111
S'1606902'
p6112
asS'572317'
p6113
(lp6114
S'1606902'
p6115
asS'1037660'
p6116
(lp6117
S'1095970'
p6118
asS'1313255'
p6119
(lp6120
S'1606902'
p6121
asS'1445956'
p6122
(lp6123
S'1774505'
p6124
asS'253305'
p6125
(lp6126
S'1606902'
p6127
asS'2003270'
p6128
(lp6129
S'1606902'
p6130
aS'1760376'
p6131
asS'1267530'
p6132
(lp6133
S'1606902'
p6134
asS'1450580'
p6135
(lp6136
S'1774594'
p6137
asS'1902278'
p6138
(lp6139
S'1606717'
p6140
asS'1469367'
p6141
(lp6142
S'1774862'
p6143
asS'1451291'
p6144
(lp6145
S'458026'
p6146
asS'1349839'
p6147
(lp6148
S'1774713'
p6149
aS'1606902'
p6150
aS'1774722'
p6151
asS'424661'
p6152
(lp6153
S'1606902'
p6154
aS'1606609'
p6155
asS'1512409'
p6156
(lp6157
S'1606902'
p6158
asS'1783467'
p6159
(lp6160
S'1760388'
p6161
asS'424669'
p6162
(lp6163
S'1419930'
p6164
asS'1841191'
p6165
(lp6166
S'1902321'
p6167
asS'890053'
p6168
(lp6169
S'1606902'
p6170
asS'305594'
p6171
(lp6172
S'1606902'
p6173
aS'754522'
p6174
aS'1928678'
p6175
aS'1606596'
p6176
asS'1027324'
p6177
(lp6178
S'1606902'
p6179
asS'702414'
p6180
(lp6181
S'1606902'
p6182
asS'558160'
p6183
(lp6184
S'1606717'
p6185
asS'859105'
p6186
(lp6187
S'1675399'
p6188
asS'1670779'
p6189
(lp6190
S'2169800'
p6191
aS'713254'
p6192
asS'951669'
p6193
(lp6194
S'1760405'
p6195
asS'891373'
p6196
(lp6197
S'1760373'
p6198
aS'1928748'
p6199
aS'173758'
p6200
aS'143756'
p6201
aS'561079'
p6202
aS'567505'
p6203
aS'522328'
p6204
aS'100337'
p6205
aS'519049'
p6206
aS'562882'
p6207
aS'189426'
p6208
aS'1606595'
p6209
aS'713291'
p6210
aS'356904'
p6211
aS'382369'
p6212
aS'1606523'
p6213
asS'636035'
p6214
(lp6215
S'1419930'
p6216
asS'636037'
p6217
(lp6218
S'1774862'
p6219
asS'1803220'
p6220
(lp6221
S'1606902'
p6222
aS'713254'
p6223
aS'682877'
p6224
asS'888338'
p6225
(lp6226
S'2393452'
p6227
asS'473562'
p6228
(lp6229
S'1606717'
p6230
aS'1774594'
p6231
aS'1774849'
p6232
aS'713254'
p6233
aS'1606610'
p6234
aS'1774595'
p6235
aS'1774722'
p6236
aS'2018059'
p6237
asS'1004124'
p6238
(lp6239
S'1606902'
p6240
asS'748348'
p6241
(lp6242
S'1606717'
p6243
asS'513427'
p6244
(lp6245
S'1606902'
p6246
aS'930749'
p6247
aS'1606717'
p6248
asS'1598217'
p6249
(lp6250
S'1837210'
p6251
aS'1774520'
p6252
aS'1774996'
p6253
aS'1774972'
p6254
asS'1253325'
p6255
(lp6256
S'1606902'
p6257
asS'246726'
p6258
(lp6259
S'1774862'
p6260
asS'1003774'
p6261
(lp6262
S'563514'
p6263
aS'683822'
p6264
aS'1606609'
p6265
aS'713254'
p6266
aS'1774706'
p6267
aS'1775011'
p6268
aS'1760402'
p6269
aS'1774957'
p6270
aS'1774649'
p6271
aS'1774452'
p6272
aS'1095970'
p6273
aS'1774454'
p6274
aS'682877'
p6275
aS'1774595'
p6276
aS'1774687'
p6277
aS'694649'
p6278
aS'562574'
p6279
aS'1606474'
p6280
aS'1774848'
p6281
aS'1775042'
p6282
asS'1973404'
p6283
(lp6284
S'1606902'
p6285
asS'1897756'
p6286
(lp6287
S'1774963'
p6288
asS'1510820'
p6289
(lp6290
S'1774594'
p6291
aS'1774972'
p6292
asS'943823'
p6293
(lp6294
S'1774595'
p6295
asS'623861'
p6296
(lp6297
S'1774505'
p6298
asS'572658'
p6299
(lp6300
S'713229'
p6301
aS'1774717'
p6302
asS'422545'
p6303
(lp6304
S'1606902'
p6305
asS'1135032'
p6306
(lp6307
S'458026'
p6308
asS'376639'
p6309
(lp6310
S'1606902'
p6311
asS'981295'
p6312
(lp6313
S'1774684'
p6314
asS'1221198'
p6315
(lp6316
S'1606902'
p6317
asS'244619'
p6318
(lp6319
S'1606717'
p6320
asS'1786325'
p6321
(lp6322
S'713234'
p6323
aS'1774972'
p6324
aS'1774862'
p6325
aS'1775011'
p6326
aS'1774603'
p6327
aS'2188303'
p6328
aS'300076'
p6329
aS'1902321'
p6330
aS'1760642'
p6331
aS'1760398'
p6332
aS'1774595'
p6333
aS'1774776'
p6334
aS'1774796'
p6335
aS'1774789'
p6336
asS'1204678'
p6337
(lp6338
S'563514'
p6339
aS'1775011'
p6340
aS'1606717'
p6341
asS'1976031'
p6342
(lp6343
S'1606902'
p6344
asS'1368284'
p6345
(lp6346
S'1774594'
p6347
asS'274662'
p6348
(lp6349
S'1675399'
p6350
asS'2024584'
p6351
(lp6352
S'1606717'
p6353
asS'1048517'
p6354
(lp6355
S'1606902'
p6356
aS'1774722'
p6357
aS'131204'
p6358
aS'1606717'
p6359
aS'458026'
p6360
asS'363750'
p6361
(lp6362
S'451560'
p6363
asS'695618'
p6364
(lp6365
S'1760401'
p6366
aS'2105489'
p6367
asS'412112'
p6368
(lp6369
S'1774595'
p6370
aS'2117779'
p6371
aS'450517'
p6372
aS'2143723'
p6373
aS'2260782'
p6374
aS'441554'
p6375
aS'2314251'
p6376
aS'719983'
p6377
aS'1774976'
p6378
aS'1709121'
p6379
aS'1287637'
p6380
aS'875014'
p6381
aS'683679'
p6382
aS'1669776'
p6383
aS'1774505'
p6384
asS'895057'
p6385
(lp6386
S'1606902'
p6387
aS'1774684'
p6388
asS'1738703'
p6389
(lp6390
S'530619'
p6391
asS'1467788'
p6392
(lp6393
S'647356'
p6394
asS'926635'
p6395
(lp6396
S'1774963'
p6397
asS'643834'
p6398
(lp6399
S'1606902'
p6400
aS'529918'
p6401
aS'1837210'
p6402
asS'1133426'
p6403
(lp6404
S'1606902'
p6405
aS'1774862'
p6406
asS'164467'
p6407
(lp6408
S'1760350'
p6409
aS'563514'
p6410
aS'682877'
p6411
aS'192956'
p6412
aS'713254'
p6413
asS'1484419'
p6414
(lp6415
S'1774848'
p6416
asS'440364'
p6417
(lp6418
S'1606717'
p6419
asS'940165'
p6420
(lp6421
S'1606902'
p6422
aS'1775003'
p6423
aS'1870054'
p6424
asS'1548801'
p6425
(lp6426
S'1606902'
p6427
asS'604092'
p6428
(lp6429
S'1675399'
p6430
asS'757480'
p6431
(lp6432
S'1774717'
p6433
asS'717711'
p6434
(lp6435
S'713228'
p6436
asS'1442469'
p6437
(lp6438
S'1606902'
p6439
asS'433012'
p6440
(lp6441
S'1774408'
p6442
aS'698890'
p6443
aS'1606552'
p6444
aS'2105599'
p6445
aS'1606610'
p6446
aS'1774713'
p6447
asS'1225348'
p6448
(lp6449
S'1760403'
p6450
asS'1301797'
p6451
(lp6452
S'1606902'
p6453
asS'1796399'
p6454
(lp6455
S'1606902'
p6456
asS'1627843'
p6457
(lp6458
S'1775045'
p6459
aS'1774717'
p6460
asS'1863002'
p6461
(lp6462
S'1760350'
p6463
asS'516259'
p6464
(lp6465
S'1606902'
p6466
aS'1606608'
p6467
aS'694649'
p6468
asS'1564392'
p6469
(lp6470
S'1606902'
p6471
asS'482710'
p6472
(lp6473
S'458026'
p6474
asS'1315491'
p6475
(lp6476
S'1760376'
p6477
aS'1774862'
p6478
asS'2034841'
p6479
(lp6480
S'1606717'
p6481
aS'1606902'
p6482
asS'1888301'
p6483
(lp6484
S'1606717'
p6485
asS'1793703'
p6486
(lp6487
S'1774713'
p6488
aS'1972159'
p6489
aS'1774684'
p6490
asS'1176709'
p6491
(lp6492
S'441554'
p6493
aS'1774594'
p6494
asS'1268276'
p6495
(lp6496
S'1760350'
p6497
asS'1458960'
p6498
(lp6499
S'1606902'
p6500
aS'2105489'
p6501
asS'788059'
p6502
(lp6503
S'1774540'
p6504
asS'1823082'
p6505
(lp6506
S'1606574'
p6507
aS'1606609'
p6508
asS'1540838'
p6509
(lp6510
S'1606609'
p6511
asS'1816911'
p6512
(lp6513
S'1606717'
p6514
asS'1709005'
p6515
(lp6516
S'172508'
p6517
asS'1771929'
p6518
(lp6519
S'1774595'
p6520
aS'713254'
p6521
aS'1774713'
p6522
aS'2105515'
p6523
aS'1760350'
p6524
aS'1760376'
p6525
aS'1760399'
p6526
aS'1928655'
p6527
aS'1774849'
p6528
asS'548038'
p6529
(lp6530
S'458026'
p6531
aS'754522'
p6532
asS'716150'
p6533
(lp6534
S'1606717'
p6535
asS'544870'
p6536
(lp6537
S'1606902'
p6538
asS'2064996'
p6539
(lp6540
S'1606902'
p6541
asS'273787'
p6542
(lp6543
S'1675399'
p6544
aS'1774505'
p6545
asS'1830858'
p6546
(lp6547
S'1606902'
p6548
asS'239406'
p6549
(lp6550
S'1606717'
p6551
asS'460355'
p6552
(lp6553
S'2335873'
p6554
asS'1803351'
p6555
(lp6556
S'1606902'
p6557
asS'703850'
p6558
(lp6559
S'1606902'
p6560
aS'1606717'
p6561
aS'1774969'
p6562
asS'2023670'
p6563
(lp6564
S'1606902'
p6565
asS'545751'
p6566
(lp6567
S'1606717'
p6568
asS'2043538'
p6569
(lp6570
S'647356'
p6571
asS'786788'
p6572
(lp6573
S'1606609'
p6574
asS'1469740'
p6575
(lp6576
S'1606902'
p6577
asS'206120'
p6578
(lp6579
S'218438'
p6580
asS'918857'
p6581
(lp6582
S'1606902'
p6583
asS'1276014'
p6584
(lp6585
S'1606717'
p6586
aS'1606902'
p6587
aS'218438'
p6588
asS'1929752'
p6589
(lp6590
S'682877'
p6591
aS'1775011'
p6592
asS'1476940'
p6593
(lp6594
S'1606717'
p6595
asS'722371'
p6596
(lp6597
S'908591'
p6598
aS'1606902'
p6599
aS'1774589'
p6600
aS'633220'
p6601
aS'1774963'
p6602
aS'1775028'
p6603
asS'1412441'
p6604
(lp6605
S'1606902'
p6606
aS'1774536'
p6607
asS'1254888'
p6608
(lp6609
S'1606717'
p6610
asS'1821779'
p6611
(lp6612
S'436442'
p6613
aS'1774595'
p6614
asS'372708'
p6615
(lp6616
S'1606902'
p6617
asS'2062276'
p6618
(lp6619
S'2105561'
p6620
aS'1419930'
p6621
aS'2169800'
p6622
asS'1786139'
p6623
(lp6624
S'2105482'
p6625
asS'844900'
p6626
(lp6627
S'1606902'
p6628
asS'116293'
p6629
(lp6630
S'682877'
p6631
asS'413897'
p6632
(lp6633
S'1760338'
p6634
asS'1070919'
p6635
(lp6636
S'218438'
p6637
asS'870965'
p6638
(lp6639
S'1774595'
p6640
asS'1089742'
p6641
(lp6642
S'1837210'
p6643
aS'1774862'
p6644
asS'301027'
p6645
(lp6646
S'1775042'
p6647
aS'1775025'
p6648
aS'2169800'
p6649
asS'301024'
p6650
(lp6651
S'458026'
p6652
aS'1774454'
p6653
asS'1845965'
p6654
(lp6655
S'930749'
p6656
asS'909700'
p6657
(lp6658
S'1606902'
p6659
asS'157895'
p6660
(lp6661
S'2105599'
p6662
aS'713250'
p6663
aS'562574'
p6664
aS'1932882'
p6665
asS'1059198'
p6666
(lp6667
S'1775029'
p6668
asS'1194066'
p6669
(lp6670
S'1774595'
p6671
asS'1074895'
p6672
(lp6673
S'1341347'
p6674
asS'1909473'
p6675
(lp6676
S'1928678'
p6677
asS'1772645'
p6678
(lp6679
S'1606902'
p6680
aS'2105598'
p6681
aS'1108697'
p6682
aS'172508'
p6683
aS'343522'
p6684
asS'240077'
p6685
(lp6686
S'1606902'
p6687
asS'1807926'
p6688
(lp6689
S'1606902'
p6690
asS'254302'
p6691
(lp6692
S'1606902'
p6693
asS'849377'
p6694
(lp6695
S'1606902'
p6696
aS'1606717'
p6697
aS'2105512'
p6698
asS'1023249'
p6699
(lp6700
S'1606902'
p6701
asS'1870709'
p6702
(lp6703
S'1774862'
p6704
asS'1501596'
p6705
(lp6706
S'1606717'
p6707
aS'1774595'
p6708
aS'1606902'
p6709
aS'1760400'
p6710
asS'826896'
p6711
(lp6712
S'2105362'
p6713
aS'1606515'
p6714
aS'922178'
p6715
asS'393930'
p6716
(lp6717
S'1606902'
p6718
aS'1606609'
p6719
aS'1760402'
p6720
aS'1837210'
p6721
aS'1760350'
p6722
aS'1774452'
p6723
aS'1954203'
p6724
aS'1606596'
p6725
aS'1774797'
p6726
aS'778749'
p6727
aS'1606574'
p6728
aS'1774502'
p6729
aS'1928678'
p6730
aS'2105489'
p6731
aS'1606610'
p6732
aS'1774706'
p6733
aS'1760320'
p6734
aS'1774595'
p6735
aS'1928655'
p6736
aS'1774687'
p6737
aS'713254'
p6738
aS'1606515'
p6739
aS'1774816'
p6740
asS'578420'
p6741
(lp6742
S'458026'
p6743
aS'1774717'
p6744
asS'472198'
p6745
(lp6746
S'1760350'
p6747
asS'1868574'
p6748
(lp6749
S'1606902'
p6750
aS'2105465'
p6751
aS'1760376'
p6752
aS'1760402'
p6753
aS'1774848'
p6754
aS'2012081'
p6755
aS'1606574'
p6756
aS'193952'
p6757
aS'727272'
p6758
asS'871168'
p6759
(lp6760
S'647356'
p6761
aS'1606610'
p6762
aS'2105482'
p6763
aS'1419930'
p6764
aS'1606902'
p6765
aS'1606515'
p6766
asS'658986'
p6767
(lp6768
S'1837210'
p6769
aS'754522'
p6770
asS'1879288'
p6771
(lp6772
S'1606717'
p6773
asS'1692164'
p6774
(lp6775
S'1774684'
p6776
asS'1353804'
p6777
(lp6778
S'1606902'
p6779
asS'1023791'
p6780
(lp6781
S'1774505'
p6782
asS'577945'
p6783
(lp6784
S'1606609'
p6785
asS'1660792'
p6786
(lp6787
S'1774595'
p6788
aS'647356'
p6789
aS'510375'
p6790
aS'1760376'
p6791
aS'545485'
p6792
aS'721665'
p6793
aS'731389'
p6794
aS'559088'
p6795
aS'577155'
p6796
aS'1606717'
p6797
aS'561079'
p6798
asS'113135'
p6799
(lp6800
S'1606609'
p6801
asS'1694195'
p6802
(lp6803
S'1606902'
p6804
aS'2105599'
p6805
asS'365971'
p6806
(lp6807
S'1775042'
p6808
asS'1241312'
p6809
(lp6810
S'1774963'
p6811
asS'1462132'
p6812
(lp6813
S'452661'
p6814
asS'1187433'
p6815
(lp6816
S'1760350'
p6817
aS'1760376'
p6818
asS'278334'
p6819
(lp6820
S'1774594'
p6821
aS'1606609'
p6822
asS'768415'
p6823
(lp6824
S'594200'
p6825
aS'1760402'
p6826
aS'683822'
p6827
aS'531753'
p6828
aS'1774722'
p6829
aS'1760350'
p6830
aS'1072737'
p6831
aS'1637775'
p6832
aS'1954203'
p6833
aS'1774705'
p6834
aS'505220'
p6835
aS'1774584'
p6836
aS'1774868'
p6837
aS'1774923'
p6838
aS'1760338'
p6839
aS'1774963'
p6840
aS'1774957'
p6841
aS'731434'
p6842
aS'1774683'
p6843
aS'519049'
p6844
aS'524653'
p6845
aS'1774952'
p6846
aS'2297152'
p6847
aS'1774594'
p6848
aS'969219'
p6849
aS'2105767'
p6850
aS'2105464'
p6851
aS'2105603'
p6852
aS'1774635'
p6853
aS'1774482'
p6854
asS'803222'
p6855
(lp6856
S'1606717'
p6857
asS'1332671'
p6858
(lp6859
S'1606717'
p6860
aS'1774952'
p6861
asS'406888'
p6862
(lp6863
S'1606609'
p6864
asS'626538'
p6865
(lp6866
S'682877'
p6867
aS'1774536'
p6868
aS'1774925'
p6869
aS'754522'
p6870
aS'1606609'
p6871
aS'1775028'
p6872
aS'1760338'
p6873
aS'1774684'
p6874
aS'647356'
p6875
aS'1774603'
p6876
aS'1774862'
p6877
aS'2105598'
p6878
aS'559088'
p6879
aS'1760381'
p6880
aS'1606717'
p6881
aS'1775011'
p6882
asS'481655'
p6883
(lp6884
S'1606902'
p6885
asS'1898840'
p6886
(lp6887
S'1606902'
p6888
aS'441554'
p6889
asS'307981'
p6890
(lp6891
S'1606902'
p6892
asS'847930'
p6893
(lp6894
S'1837210'
p6895
asS'1447091'
p6896
(lp6897
S'1606902'
p6898
asS'2075983'
p6899
(lp6900
S'1606717'
p6901
asS'827079'
p6902
(lp6903
S'1774452'
p6904
aS'1606693'
p6905
asS'568980'
p6906
(lp6907
S'1606902'
p6908
aS'1774963'
p6909
aS'1775011'
p6910
asS'265863'
p6911
(lp6912
S'647356'
p6913
asS'342405'
p6914
(lp6915
S'505639'
p6916
aS'1774462'
p6917
asS'1186901'
p6918
(lp6919
S'1760398'
p6920
asS'1581559'
p6921
(lp6922
S'1606607'
p6923
aS'1606610'
p6924
asS'620908'
p6925
(lp6926
S'1775011'
p6927
asS'211170'
p6928
(lp6929
S'694649'
p6930
aS'647356'
p6931
aS'2105603'
p6932
asS'2017165'
p6933
(lp6934
S'731434'
p6935
aS'1775024'
p6936
asS'1262746'
p6937
(lp6938
S'1775025'
p6939
aS'1760360'
p6940
aS'2105486'
p6941
aS'713248'
p6942
aS'504783'
p6943
asS'1898062'
p6944
(lp6945
S'1606717'
p6946
asS'1776585'
p6947
(lp6948
S'1760398'
p6949
asS'1918910'
p6950
(lp6951
S'647356'
p6952
asS'1469918'
p6953
(lp6954
S'1606902'
p6955
asS'600383'
p6956
(lp6957
S'1606717'
p6958
asS'640108'
p6959
(lp6960
S'2066818'
p6961
aS'2224167'
p6962
aS'694649'
p6963
aS'1774683'
p6964
aS'441554'
p6965
aS'754522'
p6966
aS'713248'
p6967
aS'1606610'
p6968
aS'539162'
p6969
aS'1760376'
p6970
aS'1331770'
p6971
aS'1774713'
p6972
aS'2105541'
p6973
aS'1774595'
p6974
aS'2335873'
p6975
aS'713240'
p6976
aS'908591'
p6977
aS'1760654'
p6978
aS'646592'
p6979
aS'1774848'
p6980
aS'1774502'
p6981
aS'1774509'
p6982
aS'1606608'
p6983
aS'2169800'
p6984
aS'1774594'
p6985
aS'647356'
p6986
aS'867199'
p6987
aS'1606902'
p6988
aS'2105476'
p6989
aS'329662'
p6990
aS'1054968'
p6991
aS'1774536'
p6992
aS'1774960'
p6993
aS'1760386'
p6994
aS'592273'
p6995
aS'725183'
p6996
aS'713228'
p6997
aS'1928687'
p6998
aS'2105486'
p6999
aS'627961'
p7000
aS'1606687'
p7001
aS'2163868'
p7002
aS'1774705'
p7003
aS'1774925'
p7004
aS'1760302'
p7005
aS'1775042'
p7006
aS'1606609'
p7007
aS'322386'
p7008
aS'573462'
p7009
aS'1774550'
p7010
aS'2105603'
p7011
aS'333588'
p7012
aS'1774797'
p7013
aS'167614'
p7014
aS'543834'
p7015
aS'1213266'
p7016
aS'249736'
p7017
aS'713250'
p7018
aS'561043'
p7019
aS'713227'
p7020
aS'1349990'
p7021
aS'2013565'
p7022
aS'265291'
p7023
aS'460666'
p7024
aS'728408'
p7025
aS'1774482'
p7026
aS'2105453'
p7027
aS'713229'
p7028
aS'290927'
p7029
aS'713251'
p7030
aS'778749'
p7031
aS'1760379'
p7032
aS'1774967'
p7033
aS'513098'
p7034
aS'1760395'
p7035
aS'1794635'
p7036
aS'1774635'
p7037
aS'1774816'
p7038
aS'1231352'
p7039
aS'1774570'
p7040
aS'969219'
p7041
aS'1567096'
p7042
aS'2105562'
p7043
aS'1760403'
p7044
aS'2280082'
p7045
aS'436442'
p7046
aS'2105484'
p7047
aS'630683'
p7048
aS'713239'
p7049
aS'1760402'
p7050
aS'462104'
p7051
aS'2287260'
p7052
aS'1775001'
p7053
aS'2105514'
p7054
aS'1760363'
p7055
aS'1638658'
p7056
aS'2105597'
p7057
aS'758083'
p7058
aS'1774616'
p7059
aS'1760326'
p7060
aS'1760360'
p7061
aS'1760423'
p7062
aS'640892'
p7063
aS'436056'
p7064
aS'1774511'
p7065
aS'291065'
p7066
aS'124087'
p7067
aS'723577'
p7068
aS'1458847'
p7069
aS'699215'
p7070
aS'1586439'
p7071
aS'1774722'
p7072
aS'665889'
p7073
aS'1775040'
p7074
aS'824521'
p7075
aS'713322'
p7076
aS'731389'
p7077
aS'1928675'
p7078
aS'231865'
p7079
aS'2105595'
p7080
aS'1928728'
p7081
aS'713310'
p7082
aS'753482'
p7083
aS'1775088'
p7084
aS'1259766'
p7085
aS'1774867'
p7086
aS'2105575'
p7087
aS'172508'
p7088
aS'1760410'
p7089
aS'452661'
p7090
aS'140050'
p7091
aS'472999'
p7092
aS'1774844'
p7093
aS'762768'
p7094
aS'1928741'
p7095
aS'2310905'
p7096
aS'2105326'
p7097
aS'193952'
p7098
aS'725380'
p7099
aS'665932'
p7100
aS'1774789'
p7101
aS'709795'
p7102
aS'1774504'
p7103
aS'1774686'
p7104
aS'1775003'
p7105
aS'713260'
p7106
aS'2335877'
p7107
aS'760113'
p7108
aS'2105458'
p7109
aS'561053'
p7110
aS'577322'
p7111
aS'1774638'
p7112
aS'2339549'
p7113
aS'529228'
p7114
aS'530619'
p7115
aS'1774781'
p7116
aS'1760399'
p7117
aS'746824'
p7118
aS'713282'
p7119
aS'623203'
p7120
aS'725304'
p7121
aS'1775014'
p7122
aS'524653'
p7123
aS'1774534'
p7124
aS'1606607'
p7125
aS'828384'
p7126
aS'1334793'
p7127
aS'1606575'
p7128
aS'1774507'
p7129
aS'1760301'
p7130
aS'1774814'
p7131
aS'1551237'
p7132
aS'1356507'
p7133
aS'516110'
p7134
aS'1774587'
p7135
aS'269465'
p7136
aS'1774463'
p7137
aS'1775009'
p7138
aS'1606523'
p7139
aS'1760422'
p7140
aS'1760618'
p7141
aS'655775'
p7142
aS'2167615'
p7143
aS'2262920'
p7144
aS'988001'
p7145
aS'1606536'
p7146
aS'1760362'
p7147
aS'577332'
p7148
aS'1760320'
p7149
aS'798225'
p7150
aS'1774462'
p7151
aS'1774937'
p7152
aS'1774606'
p7153
aS'1774533'
p7154
aS'1121038'
p7155
aS'1494039'
p7156
aS'786313'
p7157
aS'1774799'
p7158
aS'594200'
p7159
aS'1928671'
p7160
aS'1928724'
p7161
aS'1928740'
p7162
aS'426750'
p7163
aS'1774589'
p7164
aS'428085'
p7165
aS'1847735'
p7166
aS'2105569'
p7167
aS'1760617'
p7168
aS'1928748'
p7169
aS'1774977'
p7170
aS'681085'
p7171
asS'319630'
p7172
(lp7173
S'1606902'
p7174
asS'471885'
p7175
(lp7176
S'218438'
p7177
asS'940688'
p7178
(lp7179
S'1606902'
p7180
asS'857793'
p7181
(lp7182
S'1775044'
p7183
asS'898969'
p7184
(lp7185
S'1606902'
p7186
asS'1540801'
p7187
(lp7188
S'1606902'
p7189
asS'2088716'
p7190
(lp7191
S'458026'
p7192
asS'176782'
p7193
(lp7194
S'731389'
p7195
asS'1154230'
p7196
(lp7197
S'1606902'
p7198
aS'1606717'
p7199
aS'646592'
p7200
asS'273331'
p7201
(lp7202
S'1606609'
p7203
aS'1774717'
p7204
asS'1798653'
p7205
(lp7206
S'647356'
p7207
asS'1993330'
p7208
(lp7209
S'1606902'
p7210
asS'1720656'
p7211
(lp7212
S'1606902'
p7213
asS'815354'
p7214
(lp7215
S'1774722'
p7216
aS'1606717'
p7217
aS'754522'
p7218
asS'2094501'
p7219
(lp7220
S'930749'
p7221
asS'212526'
p7222
(lp7223
S'1760402'
p7224
asS'1796547'
p7225
(lp7226
S'1606902'
p7227
asS'1845850'
p7228
(lp7229
S'647356'
p7230
asS'563511'
p7231
(lp7232
S'1606717'
p7233
asS'228977'
p7234
(lp7235
S'2229827'
p7236
asS'1630938'
p7237
(lp7238
S'1606902'
p7239
aS'1606608'
p7240
aS'1774594'
p7241
asS'262398'
p7242
(lp7243
S'1606607'
p7244
asS'438425'
p7245
(lp7246
S'1606717'
p7247
asS'308683'
p7248
(lp7249
S'1606902'
p7250
asS'1533981'
p7251
(lp7252
S'1775076'
p7253
aS'713248'
p7254
aS'504783'
p7255
aS'1774705'
p7256
aS'1774786'
p7257
aS'1774599'
p7258
asS'288910'
p7259
(lp7260
S'1760427'
p7261
aS'1775029'
p7262
asS'526313'
p7263
(lp7264
S'2335873'
p7265
aS'1606559'
p7266
aS'1775006'
p7267
aS'1774721'
p7268
aS'629574'
p7269
asS'1179382'
p7270
(lp7271
S'1774717'
p7272
asS'215461'
p7273
(lp7274
S'1606902'
p7275
asS'897998'
p7276
(lp7277
S'458026'
p7278
aS'1775024'
p7279
aS'1774717'
p7280
aS'562574'
p7281
aS'520759'
p7282
aS'403259'
p7283
aS'592273'
p7284
aS'1606574'
p7285
aS'291065'
p7286
aS'2105598'
p7287
aS'683822'
p7288
aS'1928678'
p7289
aS'1760403'
p7290
aS'1760376'
p7291
aS'2105561'
p7292
aS'1760396'
p7293
aS'1760399'
p7294
aS'1774482'
p7295
aS'1775076'
p7296
aS'193952'
p7297
aS'2105603'
p7298
aS'1774616'
p7299
aS'2188303'
p7300
aS'329662'
p7301
aS'630683'
p7302
aS'725379'
p7303
aS'1774706'
p7304
aS'1774816'
p7305
aS'290927'
p7306
aS'1349990'
p7307
aS'1928655'
p7308
aS'1606515'
p7309
aS'2105349'
p7310
aS'2280082'
p7311
aS'1774502'
p7312
aS'300076'
p7313
aS'1760381'
p7314
aS'2105484'
p7315
aS'743511'
p7316
aS'2105550'
p7317
aS'1760353'
p7318
aS'1774797'
p7319
aS'1774969'
p7320
aS'572220'
p7321
aS'1606608'
p7322
aS'1774999'
p7323
aS'1774452'
p7324
aS'1760320'
p7325
aS'338764'
p7326
aS'504783'
p7327
aS'1774848'
p7328
aS'2393452'
p7329
aS'1774925'
p7330
aS'1606609'
p7331
aS'713211'
p7332
aS'1213266'
p7333
aS'1774954'
p7334
aS'1760654'
p7335
aS'1774692'
p7336
aS'1774796'
p7337
aS'2105453'
p7338
aS'713240'
p7339
aS'1760326'
p7340
aS'1760410'
p7341
aS'725380'
p7342
aS'1086517'
p7343
aS'1760493'
p7344
aS'1774613'
p7345
aS'1774457'
p7346
aS'1774533'
p7347
aS'1774687'
p7348
aS'2404454'
p7349
aS'731434'
p7350
aS'1606474'
p7351
aS'778749'
p7352
aS'1774550'
p7353
aS'441554'
p7354
aS'713260'
p7355
aS'1775003'
p7356
aS'452661'
p7357
aS'1775057'
p7358
aS'2013565'
p7359
aS'1606525'
p7360
aS'1774734'
p7361
aS'561053'
p7362
aS'665932'
p7363
aS'624922'
p7364
aS'1606596'
p7365
aS'1774952'
p7366
aS'1774789'
p7367
aS'713165'
p7368
aS'727272'
p7369
aS'1760363'
p7370
aS'709795'
p7371
aS'361221'
p7372
aS'731389'
p7373
aS'1334555'
p7374
aS'2105784'
p7375
aS'651131'
p7376
aS'2105465'
p7377
aS'572238'
p7378
aS'1774603'
p7379
aS'2105476'
p7380
aS'699215'
p7381
aS'1774799'
p7382
aS'2105563'
p7383
aS'513098'
p7384
aS'1606575'
p7385
aS'741909'
p7386
aS'713229'
p7387
aS'1774960'
p7388
aS'1774990'
p7389
aS'1064275'
p7390
aS'1774707'
p7391
aS'1672667'
p7392
aS'859175'
p7393
aS'1774380'
p7394
aS'1791518'
p7395
aS'723114'
p7396
aS'1606600'
p7397
aS'1774454'
p7398
aS'1774935'
p7399
aS'1774463'
p7400
aS'586592'
p7401
aS'1760362'
p7402
aS'1784713'
p7403
aS'2105512'
p7404
aS'536451'
p7405
aS'798225'
p7406
aS'127164'
p7407
aS'670442'
p7408
aS'725183'
p7409
aS'1774471'
p7410
aS'426750'
p7411
aS'594200'
p7412
aS'713251'
p7413
aS'687441'
p7414
aS'1774776'
p7415
aS'1774636'
p7416
aS'1551237'
p7417
aS'2105781'
p7418
aS'516110'
p7419
aS'1774844'
p7420
aS'2105778'
p7421
aS'969219'
p7422
asS'722347'
p7423
(lp7424
S'647356'
p7425
asS'1070293'
p7426
(lp7427
S'1775025'
p7428
asS'1175877'
p7429
(lp7430
S'1606574'
p7431
asS'1845773'
p7432
(lp7433
S'1606902'
p7434
asS'307088'
p7435
(lp7436
S'2012081'
p7437
asS'497342'
p7438
(lp7439
S'1775044'
p7440
asS'1018313'
p7441
(lp7442
S'1606902'
p7443
asS'2014837'
p7444
(lp7445
S'1837210'
p7446
asS'1077268'
p7447
(lp7448
S'1606717'
p7449
asS'444912'
p7450
(lp7451
S'458026'
p7452
asS'354042'
p7453
(lp7454
S'2105599'
p7455
asS'926989'
p7456
(lp7457
S'1606902'
p7458
asS'1249347'
p7459
(lp7460
S'1774509'
p7461
aS'436442'
p7462
aS'1606902'
p7463
aS'683822'
p7464
aS'1419930'
p7465
aS'1760381'
p7466
asS'366720'
p7467
(lp7468
S'2105599'
p7469
asS'1146173'
p7470
(lp7471
S'1774862'
p7472
aS'329662'
p7473
aS'458026'
p7474
aS'1760388'
p7475
aS'300076'
p7476
aS'1775003'
p7477
aS'754522'
p7478
aS'1775044'
p7479
aS'1760350'
p7480
aS'647356'
p7481
aS'172508'
p7482
aS'1774649'
p7483
aS'1775011'
p7484
aS'1837210'
p7485
aS'2393452'
p7486
aS'1760654'
p7487
aS'1675399'
p7488
asS'1576313'
p7489
(lp7490
S'1774683'
p7491
asS'439495'
p7492
(lp7493
S'1606902'
p7494
aS'1606574'
p7495
aS'647356'
p7496
aS'458026'
p7497
aS'725183'
p7498
aS'1774539'
p7499
aS'1606609'
p7500
aS'1775024'
p7501
asS'410310'
p7502
(lp7503
S'1606902'
p7504
asS'635011'
p7505
(lp7506
S'1606902'
p7507
aS'1606717'
p7508
asS'1354148'
p7509
(lp7510
S'1774996'
p7511
asS'691790'
p7512
(lp7513
S'1606902'
p7514
asS'2061027'
p7515
(lp7516
S'1760388'
p7517
asS'1423626'
p7518
(lp7519
S'1606902'
p7520
asS'498582'
p7521
(lp7522
S'1606902'
p7523
aS'1774684'
p7524
aS'2072200'
p7525
asS'309795'
p7526
(lp7527
S'2105484'
p7528
asS'508555'
p7529
(lp7530
S'1606902'
p7531
asS'1937610'
p7532
(lp7533
S'1606717'
p7534
asS'558524'
p7535
(lp7536
S'1774862'
p7537
aS'922070'
p7538
asS'1089489'
p7539
(lp7540
S'1606902'
p7541
asS'1238697'
p7542
(lp7543
S'1606717'
p7544
asS'1999605'
p7545
(lp7546
S'1606902'
p7547
asS'153366'
p7548
(lp7549
S'1774684'
p7550
asS'2060750'
p7551
(lp7552
S'1775042'
p7553
asS'1832371'
p7554
(lp7555
S'1606902'
p7556
aS'458026'
p7557
aS'713254'
p7558
asS'518762'
p7559
(lp7560
S'1760350'
p7561
aS'1774848'
p7562
asS'1142850'
p7563
(lp7564
S'1606902'
p7565
asS'727185'
p7566
(lp7567
S'2188303'
p7568
aS'1760493'
p7569
aS'338764'
p7570
aS'1760402'
p7571
aS'824521'
p7572
aS'665932'
p7573
aS'727272'
p7574
aS'1774862'
p7575
aS'1606552'
p7576
aS'1774686'
p7577
asS'1264743'
p7578
(lp7579
S'1606902'
p7580
asS'455582'
p7581
(lp7582
S'1606902'
p7583
aS'727272'
p7584
asS'1328605'
p7585
(lp7586
S'1606902'
p7587
asS'1339008'
p7588
(lp7589
S'1774566'
p7590
asS'1530377'
p7591
(lp7592
S'2105466'
p7593
aS'1774999'
p7594
aS'2105476'
p7595
aS'2105529'
p7596
aS'1774594'
p7597
aS'1774925'
p7598
aS'1774996'
p7599
aS'1775042'
p7600
aS'2105580'
p7601
aS'2335872'
p7602
aS'1760406'
p7603
aS'1774683'
p7604
aS'731434'
p7605
aS'713250'
p7606
aS'1775029'
p7607
aS'690000'
p7608
aS'655550'
p7609
aS'725380'
p7610
aS'927000'
p7611
aS'1458847'
p7612
asS'918559'
p7613
(lp7614
S'1760377'
p7615
asS'1296848'
p7616
(lp7617
S'1606717'
p7618
asS'943492'
p7619
(lp7620
S'1774862'
p7621
asS'537591'
p7622
(lp7623
S'1606902'
p7624
aS'1774717'
p7625
aS'218438'
p7626
asS'290454'
p7627
(lp7628
S'2105599'
p7629
asS'1657580'
p7630
(lp7631
S'1606902'
p7632
aS'1606608'
p7633
asS'469931'
p7634
(lp7635
S'2105599'
p7636
aS'1760350'
p7637
aS'2224167'
p7638
aS'1675399'
p7639
aS'1774458'
p7640
aS'436442'
p7641
aS'1837210'
p7642
aS'754522'
p7643
aS'1775024'
p7644
aS'2105515'
p7645
aS'1774452'
p7646
aS'1774963'
p7647
aS'1774722'
p7648
asS'469930'
p7649
(lp7650
S'1774963'
p7651
aS'1775044'
p7652
aS'1954203'
p7653
aS'358513'
p7654
aS'2335872'
p7655
aS'563514'
p7656
asS'689971'
p7657
(lp7658
S'1760398'
p7659
aS'1760400'
p7660
aS'1774505'
p7661
aS'1775024'
p7662
aS'1928678'
p7663
aS'1606599'
p7664
aS'682877'
p7665
aS'1606902'
p7666
aS'2105489'
p7667
aS'665932'
p7668
aS'1760402'
p7669
aS'1774452'
p7670
aS'1606596'
p7671
aS'1760642'
p7672
aS'436442'
p7673
aS'1774713'
p7674
aS'1774954'
p7675
aS'193952'
p7676
aS'694649'
p7677
aS'2105598'
p7678
aS'338764'
p7679
aS'1775044'
p7680
aS'1774862'
p7681
aS'1774705'
p7682
aS'1774684'
p7683
aS'1774848'
p7684
aS'1774706'
p7685
aS'1606474'
p7686
aS'2105599'
p7687
aS'1606608'
p7688
aS'1775001'
p7689
aS'2105464'
p7690
aS'1760654'
p7691
aS'725379'
p7692
aS'172508'
p7693
aS'1954203'
p7694
aS'1606515'
p7695
aS'1760399'
p7696
aS'1775040'
p7697
aS'1774822'
p7698
aS'1902321'
p7699
aS'1774969'
p7700
aS'2105468'
p7701
aS'2188303'
p7702
aS'1108697'
p7703
aS'1638658'
p7704
aS'721665'
p7705
aS'1349990'
p7706
aS'1760388'
p7707
aS'1774718'
p7708
aS'1774520'
p7709
aS'2393452'
p7710
aS'1606717'
p7711
aS'1774952'
p7712
aS'1775076'
p7713
aS'1774613'
p7714
aS'592273'
p7715
aS'1774539'
p7716
aS'647225'
p7717
aS'1774603'
p7718
aS'1774692'
p7719
aS'2105603'
p7720
aS'1774686'
p7721
aS'1774957'
p7722
aS'533506'
p7723
aS'655550'
p7724
aS'1774816'
p7725
aS'1606610'
p7726
aS'1774789'
p7727
aS'713260'
p7728
aS'727272'
p7729
aS'2105563'
p7730
aS'1606600'
p7731
aS'290927'
p7732
asS'409706'
p7733
(lp7734
S'1606902'
p7735
aS'1954203'
p7736
asS'901072'
p7737
(lp7738
S'1606610'
p7739
aS'1606902'
p7740
asS'509680'
p7741
(lp7742
S'2260782'
p7743
aS'1775028'
p7744
aS'1606902'
p7745
aS'713228'
p7746
aS'1775076'
p7747
aS'539162'
p7748
aS'725183'
p7749
aS'2105603'
p7750
aS'447661'
p7751
aS'478929'
p7752
aS'272028'
p7753
aS'709795'
p7754
aS'124938'
p7755
aS'1774706'
p7756
aS'1774954'
p7757
aS'2105453'
p7758
aS'1760350'
p7759
aS'1760353'
p7760
aS'1606574'
p7761
aS'218438'
p7762
aS'1675399'
p7763
aS'1760327'
p7764
aS'1774967'
p7765
aS'694649'
p7766
aS'563514'
p7767
aS'2012081'
p7768
aS'2105561'
p7769
aS'1774502'
p7770
aS'1928655'
p7771
aS'1775006'
p7772
aS'713225'
p7773
aS'1837210'
p7774
aS'1928678'
p7775
aS'1606609'
p7776
aS'1774452'
p7777
aS'1095970'
p7778
aS'1415599'
p7779
aS'1760381'
p7780
aS'1774594'
p7781
aS'1774457'
p7782
aS'290927'
p7783
asS'810280'
p7784
(lp7785
S'1774927'
p7786
aS'1775025'
p7787
aS'1760376'
p7788
aS'725380'
p7789
asS'298270'
p7790
(lp7791
S'1775024'
p7792
asS'596566'
p7793
(lp7794
S'1606902'
p7795
asS'1620182'
p7796
(lp7797
S'562574'
p7798
aS'1760350'
p7799
aS'1837210'
p7800
aS'193952'
p7801
aS'516756'
p7802
aS'1760388'
p7803
aS'647356'
p7804
aS'694649'
p7805
aS'1775044'
p7806
aS'682877'
p7807
aS'867199'
p7808
aS'1775042'
p7809
aS'697103'
p7810
aS'1606608'
p7811
aS'1760401'
p7812
aS'1760432'
p7813
aS'1606574'
p7814
aS'1774599'
p7815
aS'218438'
p7816
aS'1675399'
p7817
aS'1774722'
p7818
aS'1606595'
p7819
aS'1774452'
p7820
aS'1774536'
p7821
aS'1928678'
p7822
aS'1760376'
p7823
aS'1775001'
p7824
aS'2105489'
p7825
aS'1606610'
p7826
aS'338764'
p7827
aS'1606717'
p7828
aS'569731'
p7829
aS'623203'
p7830
aS'1928749'
p7831
asS'1310028'
p7832
(lp7833
S'1870054'
p7834
aS'824521'
p7835
aS'1760420'
p7836
asS'1417500'
p7837
(lp7838
S'1774505'
p7839
asS'1068050'
p7840
(lp7841
S'1775011'
p7842
aS'1760401'
p7843
aS'1774780'
p7844
asS'1797046'
p7845
(lp7846
S'1760350'
p7847
aS'1606574'
p7848
asS'2013855'
p7849
(lp7850
S'1606902'
p7851
asS'1764096'
p7852
(lp7853
S'1606902'
p7854
asS'1631420'
p7855
(lp7856
S'1606717'
p7857
asS'1024418'
p7858
(lp7859
S'1928678'
p7860
asS'714285'
p7861
(lp7862
S'1606902'
p7863
asS'1314789'
p7864
(lp7865
S'647356'
p7866
asS'1268674'
p7867
(lp7868
S'1760350'
p7869
asS'211769'
p7870
(lp7871
S'1774923'
p7872
aS'1606902'
p7873
aS'1775024'
p7874
aS'1606574'
p7875
aS'562574'
p7876
asS'863543'
p7877
(lp7878
S'727324'
p7879
aS'1775025'
p7880
aS'2105464'
p7881
asS'718838'
p7882
(lp7883
S'1606552'
p7884
aS'1606902'
p7885
asS'658193'
p7886
(lp7887
S'1606717'
p7888
asS'223872'
p7889
(lp7890
S'1606902'
p7891
asS'1461205'
p7892
(lp7893
S'1774862'
p7894
asS'296922'
p7895
(lp7896
S'753484'
p7897
aS'2105599'
p7898
asS'1950962'
p7899
(lp7900
S'713228'
p7901
asS'552240'
p7902
(lp7903
S'1760308'
p7904
asS'545358'
p7905
(lp7906
S'1774505'
p7907
asS'749927'
p7908
(lp7909
S'1606902'
p7910
asS'1297393'
p7911
(lp7912
S'1606717'
p7913
asS'1490549'
p7914
(lp7915
S'713240'
p7916
aS'1774952'
p7917
asS'1362890'
p7918
(lp7919
S'1606902'
p7920
asS'395601'
p7921
(lp7922
S'1606902'
p7923
asS'129469'
p7924
(lp7925
S'1774717'
p7926
aS'1774862'
p7927
aS'1775045'
p7928
aS'218438'
p7929
asS'1063966'
p7930
(lp7931
S'725387'
p7932
aS'586318'
p7933
aS'2105486'
p7934
aS'131204'
p7935
aS'1760296'
p7936
aS'713250'
p7937
aS'577332'
p7938
aS'430065'
p7939
aS'1760423'
p7940
aS'1774712'
p7941
aS'290927'
p7942
aS'731389'
p7943
aS'2105464'
p7944
aS'559957'
p7945
aS'1606609'
p7946
aS'1774718'
p7947
aS'646592'
p7948
aS'741909'
p7949
aS'1108697'
p7950
aS'1760338'
p7951
aS'2076876'
p7952
aS'1606608'
p7953
aS'291065'
p7954
aS'2105550'
p7955
aS'2105484'
p7956
aS'1774977'
p7957
aS'932098'
p7958
aS'639313'
p7959
aS'1774438'
p7960
aS'623203'
p7961
aS'2105473'
p7962
aS'1774534'
p7963
asS'1944709'
p7964
(lp7965
S'665932'
p7966
asS'1295430'
p7967
(lp7968
S'2105598'
p7969
asS'1537457'
p7970
(lp7971
S'1775045'
p7972
asS'1964050'
p7973
(lp7974
S'229937'
p7975
asS'1421374'
p7976
(lp7977
S'1606902'
p7978
asS'1564445'
p7979
(lp7980
S'1760350'
p7981
asS'1816119'
p7982
(lp7983
S'713254'
p7984
aS'1606717'
p7985
aS'1837210'
p7986
aS'647356'
p7987
asS'646350'
p7988
(lp7989
S'1606717'
p7990
asS'1304025'
p7991
(lp7992
S'2105598'
p7993
asS'1648544'
p7994
(lp7995
S'692473'
p7996
aS'1760350'
p7997
aS'1775024'
p7998
asS'863725'
p7999
(lp8000
S'1606515'
p8001
asS'495532'
p8002
(lp8003
S'577590'
p8004
asS'443580'
p8005
(lp8006
S'175362'
p8007
asS'1570179'
p8008
(lp8009
S'1606902'
p8010
asS'1708198'
p8011
(lp8012
S'682877'
p8013
asS'2073078'
p8014
(lp8015
S'1606902'
p8016
aS'549649'
p8017
asS'1485630'
p8018
(lp8019
S'647356'
p8020
aS'1774717'
p8021
asS'1684520'
p8022
(lp8023
S'1606902'
p8024
asS'1243328'
p8025
(lp8026
S'218438'
p8027
asS'852773'
p8028
(lp8029
S'1774452'
p8030
aS'1870054'
p8031
aS'1760402'
p8032
aS'1760350'
p8033
asS'674734'
p8034
(lp8035
S'1606902'
p8036
aS'1606717'
p8037
aS'1760376'
p8038
aS'1775076'
p8039
asS'1772846'
p8040
(lp8041
S'1606902'
p8042
aS'1837210'
p8043
aS'1606610'
p8044
aS'724489'
p8045
aS'1760367'
p8046
aS'1774454'
p8047
aS'173266'
p8048
aS'1775042'
p8049
asS'2059727'
p8050
(lp8051
S'1675399'
p8052
asS'651499'
p8053
(lp8054
S'1606902'
p8055
asS'1478292'
p8056
(lp8057
S'1774963'
p8058
aS'1760388'
p8059
asS'470879'
p8060
(lp8061
S'1606717'
p8062
aS'1606902'
p8063
asS'542204'
p8064
(lp8065
S'1606902'
p8066
asS'508422'
p8067
(lp8068
S'458026'
p8069
aS'647356'
p8070
asS'1289172'
p8071
(lp8072
S'1606902'
p8073
asS'358386'
p8074
(lp8075
S'1775028'
p8076
aS'1774684'
p8077
aS'2105598'
p8078
aS'1760381'
p8079
aS'1774963'
p8080
aS'647356'
p8081
aS'1775024'
p8082
aS'1760353'
p8083
aS'1760301'
p8084
aS'338764'
p8085
aS'952490'
p8086
aS'1606609'
p8087
aS'694649'
p8088
aS'1775044'
p8089
aS'2188303'
p8090
aS'1774452'
p8091
aS'1775001'
p8092
aS'1774454'
p8093
aS'1760338'
p8094
aS'1760396'
p8095
aS'193952'
p8096
aS'1760642'
p8097
aS'1775040'
p8098
aS'1791518'
p8099
aS'1349990'
p8100
aS'1760377'
p8101
aS'1760401'
p8102
aS'1775006'
p8103
aS'1760388'
p8104
aS'1774849'
p8105
aS'1774462'
p8106
aS'1775013'
p8107
aS'1928678'
p8108
aS'530619'
p8109
aS'562574'
p8110
aS'778749'
p8111
aS'1760320'
p8112
aS'1774464'
p8113
aS'1774862'
p8114
aS'2105464'
p8115
aS'1774649'
p8116
aS'1774539'
p8117
aS'1606574'
p8118
aS'563514'
p8119
aS'1606600'
p8120
aS'724489'
p8121
aS'330571'
p8122
aS'1606515'
p8123
aS'592273'
p8124
aS'2335873'
p8125
aS'1774789'
p8126
aS'2105561'
p8127
aS'2105465'
p8128
asS'484802'
p8129
(lp8130
S'1760401'
p8131
aS'1760403'
p8132
aS'2105598'
p8133
aS'1774957'
p8134
aS'1760402'
p8135
asS'859150'
p8136
(lp8137
S'1586439'
p8138
asS'1130536'
p8139
(lp8140
S'1606717'
p8141
asS'200509'
p8142
(lp8143
S'647356'
p8144
aS'1606717'
p8145
asS'1237986'
p8146
(lp8147
S'1606902'
p8148
aS'1760376'
p8149
aS'1774963'
p8150
aS'713254'
p8151
aS'2105476'
p8152
asS'246353'
p8153
(lp8154
S'1606902'
p8155
aS'1760400'
p8156
aS'458026'
p8157
asS'755849'
p8158
(lp8159
S'1774683'
p8160
aS'2188303'
p8161
asS'362297'
p8162
(lp8163
S'2012081'
p8164
aS'218438'
p8165
asS'214300'
p8166
(lp8167
S'1386531'
p8168
aS'2143723'
p8169
aS'2364251'
p8170
aS'833139'
p8171
aS'875014'
p8172
aS'942817'
p8173
asS'1339166'
p8174
(lp8175
S'1774781'
p8176
aS'1606608'
p8177
aS'1774462'
p8178
aS'1774454'
p8179
aS'1774999'
p8180
aS'1774594'
p8181
aS'713239'
p8182
aS'665932'
p8183
aS'549866'
p8184
asS'1595328'
p8185
(lp8186
S'1774452'
p8187
aS'2105482'
p8188
asS'509069'
p8189
(lp8190
S'2105464'
p8191
asS'1089499'
p8192
(lp8193
S'1606609'
p8194
aS'754522'
p8195
asS'2043297'
p8196
(lp8197
S'713248'
p8198
aS'1606552'
p8199
aS'1774462'
p8200
aS'1760402'
p8201
aS'930749'
p8202
aS'456253'
p8203
aS'1775025'
p8204
aS'441554'
p8205
aS'1760376'
p8206
aS'627961'
p8207
aS'539162'
p8208
asS'1130015'
p8209
(lp8210
S'1774816'
p8211
asS'1569067'
p8212
(lp8213
S'2105583'
p8214
aS'1932882'
p8215
aS'1606552'
p8216
aS'1775028'
p8217
asS'1671722'
p8218
(lp8219
S'1606902'
p8220
asS'1130549'
p8221
(lp8222
S'1774595'
p8223
asS'820314'
p8224
(lp8225
S'1606902'
p8226
aS'1774463'
p8227
aS'665932'
p8228
aS'713225'
p8229
aS'1774594'
p8230
aS'1606688'
p8231
asS'203741'
p8232
(lp8233
S'647356'
p8234
asS'1370672'
p8235
(lp8236
S'2393452'
p8237
asS'1512233'
p8238
(lp8239
S'1775024'
p8240
asS'406955'
p8241
(lp8242
S'713254'
p8243
aS'1774505'
p8244
asS'845605'
p8245
(lp8246
S'1774963'
p8247
asS'1599221'
p8248
(lp8249
S'426750'
p8250
aS'1606902'
p8251
asS'204530'
p8252
(lp8253
S'1606902'
p8254
asS'819891'
p8255
(lp8256
S'1606717'
p8257
asS'965476'
p8258
(lp8259
S'741909'
p8260
asS'966783'
p8261
(lp8262
S'1606902'
p8263
asS'1005267'
p8264
(lp8265
S'1774684'
p8266
asS'235546'
p8267
(lp8268
S'1606717'
p8269
aS'1760400'
p8270
asS'512638'
p8271
(lp8272
S'1606902'
p8273
asS'1116909'
p8274
(lp8275
S'694649'
p8276
asS'108972'
p8277
(lp8278
S'1606902'
p8279
asS'902519'
p8280
(lp8281
S'1606902'
p8282
asS'501466'
p8283
(lp8284
S'1606902'
p8285
asS'1657590'
p8286
(lp8287
S'1606902'
p8288
asS'1263183'
p8289
(lp8290
S'1606902'
p8291
aS'193952'
p8292
aS'1606515'
p8293
aS'1606600'
p8294
aS'1760376'
p8295
aS'1606717'
p8296
asS'1595458'
p8297
(lp8298
S'1774594'
p8299
aS'731434'
p8300
aS'2261460'
p8301
asS'851815'
p8302
(lp8303
S'1606717'
p8304
asS'472751'
p8305
(lp8306
S'1774717'
p8307
aS'713254'
p8308
asS'1017023'
p8309
(lp8310
S'1606902'
p8311
aS'647356'
p8312
aS'731434'
p8313
asS'1940416'
p8314
(lp8315
S'1606902'
p8316
aS'1121038'
p8317
aS'1760401'
p8318
aS'1954203'
p8319
aS'143756'
p8320
aS'1586439'
p8321
aS'1325054'
p8322
aS'173758'
p8323
aS'1349990'
p8324
aS'586592'
p8325
aS'1760308'
p8326
aS'741909'
p8327
aS'1386531'
p8328
aS'789890'
p8329
aS'572238'
p8330
aS'2262920'
p8331
aS'725379'
p8332
aS'715470'
p8333
aS'1774520'
p8334
aS'623203'
p8335
aS'1072736'
p8336
aS'2184425'
p8337
aS'1774455'
p8338
aS'1774606'
p8339
aS'1870054'
p8340
aS'655775'
p8341
aS'741521'
p8342
aS'562543'
p8343
asS'725970'
p8344
(lp8345
S'458026'
p8346
asS'2037133'
p8347
(lp8348
S'721665'
p8349
aS'1774594'
p8350
asS'1546311'
p8351
(lp8352
S'1774962'
p8353
asS'169719'
p8354
(lp8355
S'1606902'
p8356
aS'1760402'
p8357
asS'147327'
p8358
(lp8359
S'1606902'
p8360
asS'693448'
p8361
(lp8362
S'1606717'
p8363
asS'769432'
p8364
(lp8365
S'1606902'
p8366
asS'1228146'
p8367
(lp8368
S'1774862'
p8369
aS'1774505'
p8370
aS'563514'
p8371
aS'694649'
p8372
asS'1953951'
p8373
(lp8374
S'1606717'
p8375
aS'1606902'
p8376
aS'1837210'
p8377
aS'1606596'
p8378
aS'1928655'
p8379
aS'2105598'
p8380
aS'1774536'
p8381
aS'930749'
p8382
aS'713254'
p8383
aS'1760388'
p8384
aS'713250'
p8385
aS'1760403'
p8386
aS'1774454'
p8387
aS'1606609'
p8388
aS'754522'
p8389
aS'563514'
p8390
aS'713248'
p8391
aS'1775044'
p8392
aS'1606600'
p8393
aS'1774599'
p8394
aS'1775011'
p8395
aS'1760401'
p8396
aS'1775025'
p8397
aS'2393452'
p8398
aS'1606574'
p8399
aS'623203'
p8400
aS'1775028'
p8401
aS'725379'
p8402
aS'428085'
p8403
aS'1760402'
p8404
aS'1774452'
p8405
aS'1774954'
p8406
aS'713277'
p8407
aS'1775076'
p8408
aS'2105486'
p8409
aS'531776'
p8410
aS'1774511'
p8411
aS'2105362'
p8412
aS'713260'
p8413
aS'2105603'
p8414
aS'1774963'
p8415
aS'1774969'
p8416
aS'1774952'
p8417
aS'731434'
p8418
aS'1760350'
p8419
aS'731389'
p8420
aS'713322'
p8421
aS'2105514'
p8422
aS'374244'
p8423
aS'665932'
p8424
aS'1774868'
p8425
aS'1774539'
p8426
aS'713325'
p8427
aS'513098'
p8428
aS'1606552'
p8429
aS'1760642'
p8430
asS'1336579'
p8431
(lp8432
S'1606717'
p8433
asS'1681318'
p8434
(lp8435
S'504783'
p8436
aS'1774999'
p8437
aS'218438'
p8438
aS'1760388'
p8439
aS'655775'
p8440
asS'2050597'
p8441
(lp8442
S'922070'
p8443
aS'1077599'
p8444
aS'693330'
p8445
asS'432592'
p8446
(lp8447
S'1606902'
p8448
asS'2090396'
p8449
(lp8450
S'1606902'
p8451
asS'1259665'
p8452
(lp8453
S'1606902'
p8454
asS'168401'
p8455
(lp8456
S'2105598'
p8457
asS'1547796'
p8458
(lp8459
S'1760405'
p8460
aS'1775025'
p8461
aS'563514'
p8462
aS'1774532'
p8463
aS'725395'
p8464
asS'841868'
p8465
(lp8466
S'1606574'
p8467
asS'464581'
p8468
(lp8469
S'1606902'
p8470
aS'1675399'
p8471
aS'1775024'
p8472
aS'1774595'
p8473
aS'1774550'
p8474
aS'594200'
p8475
aS'800789'
p8476
aS'463700'
p8477
aS'521169'
p8478
aS'754522'
p8479
aS'1774505'
p8480
aS'1606610'
p8481
asS'1314379'
p8482
(lp8483
S'1606902'
p8484
asS'950413'
p8485
(lp8486
S'193952'
p8487
asS'285684'
p8488
(lp8489
S'1606902'
p8490
aS'1606717'
p8491
aS'218438'
p8492
aS'2105603'
p8493
aS'1775044'
p8494
aS'338764'
p8495
aS'1774595'
p8496
aS'2105598'
p8497
aS'1774797'
p8498
aS'1774862'
p8499
aS'135294'
p8500
aS'713254'
p8501
aS'2105482'
p8502
aS'1774722'
p8503
aS'1775011'
p8504
aS'1775024'
p8505
aS'1760377'
p8506
aS'458026'
p8507
aS'2105550'
p8508
aS'563514'
p8509
aS'1774613'
p8510
aS'592273'
p8511
aS'1452772'
p8512
aS'1774617'
p8513
aS'441554'
p8514
aS'982458'
p8515
aS'1774534'
p8516
aS'618846'
p8517
aS'1774422'
p8518
asS'1139358'
p8519
(lp8520
S'1606902'
p8521
aS'1774505'
p8522
asS'1658822'
p8523
(lp8524
S'1606902'
p8525
asS'1661227'
p8526
(lp8527
S'1774482'
p8528
asS'1540972'
p8529
(lp8530
S'1774595'
p8531
aS'2105453'
p8532
aS'2224167'
p8533
aS'1675399'
p8534
aS'682877'
p8535
aS'1774793'
p8536
aS'2105476'
p8537
aS'1039544'
p8538
aS'1760376'
p8539
aS'1606902'
p8540
aS'2335873'
p8541
aS'2393452'
p8542
aS'2335872'
p8543
aS'131337'
p8544
aS'1774452'
p8545
aS'1774550'
p8546
aS'1775076'
p8547
aS'727272'
p8548
aS'1606574'
p8549
aS'291065'
p8550
aS'693635'
p8551
aS'1774603'
p8552
aS'1760371'
p8553
aS'1774844'
p8554
aS'592273'
p8555
aS'1774862'
p8556
aS'665932'
p8557
aS'2105484'
p8558
aS'539162'
p8559
aS'922070'
p8560
aS'646592'
p8561
aS'290927'
p8562
aS'1774464'
p8563
aS'1774683'
p8564
aS'2167615'
p8565
aS'696419'
p8566
aS'1760320'
p8567
aS'665939'
p8568
aS'1774687'
p8569
aS'1349990'
p8570
aS'2012081'
p8571
aS'1954203'
p8572
aS'1775024'
p8573
aS'1760353'
p8574
aS'1760381'
p8575
aS'1774963'
p8576
asS'889408'
p8577
(lp8578
S'1606717'
p8579
aS'2188303'
p8580
aS'1774787'
p8581
asS'1798186'
p8582
(lp8583
S'1760410'
p8584
aS'1774963'
p8585
aS'2105511'
p8586
asS'497587'
p8587
(lp8588
S'1606902'
p8589
asS'544365'
p8590
(lp8591
S'458026'
p8592
asS'1612496'
p8593
(lp8594
S'1760400'
p8595
aS'1774594'
p8596
aS'623203'
p8597
asS'526063'
p8598
(lp8599
S'1760388'
p8600
aS'1419930'
p8601
asS'405809'
p8602
(lp8603
S'1606902'
p8604
aS'1760376'
p8605
asS'312606'
p8606
(lp8607
S'1606717'
p8608
asS'148961'
p8609
(lp8610
S'218438'
p8611
asS'526084'
p8612
(lp8613
S'1775042'
p8614
aS'1774603'
p8615
aS'1760350'
p8616
aS'1774713'
p8617
aS'2105598'
p8618
aS'1606574'
p8619
aS'436442'
p8620
aS'727272'
p8621
aS'1928655'
p8622
aS'1775045'
p8623
aS'1760338'
p8624
aS'1928678'
p8625
aS'1675399'
p8626
aS'192956'
p8627
aS'291065'
p8628
aS'403259'
p8629
aS'1774613'
p8630
aS'193952'
p8631
aS'1774692'
p8632
aS'2105468'
p8633
aS'2105465'
p8634
aS'1349990'
p8635
aS'1774718'
p8636
aS'1760308'
p8637
asS'842729'
p8638
(lp8639
S'1606902'
p8640
aS'2105561'
p8641
asS'1461368'
p8642
(lp8643
S'674753'
p8644
asS'629368'
p8645
(lp8646
S'647356'
p8647
aS'731434'
p8648
aS'1760400'
p8649
aS'563514'
p8650
aS'694649'
p8651
asS'738345'
p8652
(lp8653
S'731389'
p8654
aS'1606598'
p8655
aS'1774536'
p8656
aS'1774722'
p8657
aS'1775024'
p8658
aS'218438'
p8659
asS'1112971'
p8660
(lp8661
S'1606717'
p8662
aS'1095970'
p8663
aS'175362'
p8664
asS'453304'
p8665
(lp8666
S'135294'
p8667
asS'1226604'
p8668
(lp8669
S'1775028'
p8670
asS'1817522'
p8671
(lp8672
S'1606902'
p8673
aS'1760376'
p8674
asS'1536366'
p8675
(lp8676
S'1606902'
p8677
asS'1648154'
p8678
(lp8679
S'1606717'
p8680
asS'1880059'
p8681
(lp8682
S'1760400'
p8683
asS'1487860'
p8684
(lp8685
S'1774594'
p8686
aS'693635'
p8687
aS'623203'
p8688
aS'1774998'
p8689
aS'1760337'
p8690
aS'1775076'
p8691
aS'1775087'
p8692
aS'2188303'
p8693
aS'1606559'
p8694
aS'1760367'
p8695
aS'2105603'
p8696
aS'193952'
p8697
aS'249736'
p8698
aS'572238'
p8699
aS'441554'
p8700
aS'1606574'
p8701
aS'1774520'
p8702
aS'728408'
p8703
aS'1606515'
p8704
aS'1774816'
p8705
aS'969219'
p8706
aS'1349990'
p8707
aS'1774616'
p8708
aS'1774649'
p8709
aS'2105349'
p8710
aS'2280082'
p8711
aS'713239'
p8712
aS'1774718'
p8713
aS'639440'
p8714
aS'513098'
p8715
aS'725183'
p8716
aS'1774687'
p8717
aS'143756'
p8718
aS'713228'
p8719
aS'1213266'
p8720
aS'290927'
p8721
aS'713260'
p8722
aS'1774776'
p8723
aS'932098'
p8724
asS'136918'
p8725
(lp8726
S'1787538'
p8727
asS'1567083'
p8728
(lp8729
S'1606902'
p8730
asS'1377760'
p8731
(lp8732
S'1606717'
p8733
asS'1683813'
p8734
(lp8735
S'1760388'
p8736
asS'440584'
p8737
(lp8738
S'694649'
p8739
asS'652129'
p8740
(lp8741
S'1606902'
p8742
asS'1384216'
p8743
(lp8744
S'1774505'
p8745
aS'1675399'
p8746
asS'1912668'
p8747
(lp8748
S'694649'
p8749
asS'1299273'
p8750
(lp8751
S'1774717'
p8752
asS'787597'
p8753
(lp8754
S'1606902'
p8755
asS'315077'
p8756
(lp8757
S'458026'
p8758
asS'1133216'
p8759
(lp8760
S'549649'
p8761
asS'1354093'
p8762
(lp8763
S'713254'
p8764
asS'825796'
p8765
(lp8766
S'1606902'
p8767
asS'1557297'
p8768
(lp8769
S'1774963'
p8770
asS'1275407'
p8771
(lp8772
S'1606902'
p8773
aS'1606717'
p8774
asS'592332'
p8775
(lp8776
S'1774848'
p8777
aS'1606902'
p8778
aS'456253'
p8779
aS'1775076'
p8780
aS'713254'
p8781
aS'1774969'
p8782
aS'2012081'
p8783
aS'1760400'
p8784
aS'1774963'
p8785
aS'1606717'
p8786
aS'1774408'
p8787
aS'922070'
p8788
asS'1907537'
p8789
(lp8790
S'1675399'
p8791
asS'1477592'
p8792
(lp8793
S'218438'
p8794
asS'1600966'
p8795
(lp8796
S'225455'
p8797
asS'1186983'
p8798
(lp8799
S'1774862'
p8800
asS'2024737'
p8801
(lp8802
S'436442'
p8803
asS'615673'
p8804
(lp8805
S'1606902'
p8806
asS'1718918'
p8807
(lp8808
S'1606902'
p8809
asS'429991'
p8810
(lp8811
S'1774862'
p8812
aS'683822'
p8813
aS'1606609'
p8814
asS'991426'
p8815
(lp8816
S'1606574'
p8817
asS'1509629'
p8818
(lp8819
S'1606902'
p8820
asS'677836'
p8821
(lp8822
S'1908887'
p8823
asS'1503284'
p8824
(lp8825
S'1774613'
p8826
asS'1482695'
p8827
(lp8828
S'682877'
p8829
aS'1774505'
p8830
aS'713250'
p8831
asS'1752663'
p8832
(lp8833
S'1606902'
p8834
asS'407702'
p8835
(lp8836
S'731434'
p8837
aS'1760388'
p8838
aS'1606717'
p8839
asS'1558386'
p8840
(lp8841
S'1760388'
p8842
asS'1231309'
p8843
(lp8844
S'1774509'
p8845
aS'1774594'
p8846
aS'674753'
p8847
aS'1774463'
p8848
aS'1760654'
p8849
aS'713250'
p8850
aS'1774482'
p8851
aS'1774520'
p8852
aS'1774502'
p8853
asS'1778281'
p8854
(lp8855
S'1606902'
p8856
aS'2105489'
p8857
aS'682877'
p8858
aS'1760350'
p8859
asS'666922'
p8860
(lp8861
S'731910'
p8862
asS'141558'
p8863
(lp8864
S'1606902'
p8865
asS'2039189'
p8866
(lp8867
S'1606902'
p8868
asS'1053884'
p8869
(lp8870
S'1606717'
p8871
asS'1521745'
p8872
(lp8873
S'1606902'
p8874
asS'619582'
p8875
(lp8876
S'1606902'
p8877
aS'218438'
p8878
asS'1555184'
p8879
(lp8880
S'1606902'
p8881
aS'1606717'
p8882
asS'691682'
p8883
(lp8884
S'1606717'
p8885
asS'700743'
p8886
(lp8887
S'1774505'
p8888
asS'1274751'
p8889
(lp8890
S'1606717'
p8891
asS'661594'
p8892
(lp8893
S'1606902'
p8894
asS'1276530'
p8895
(lp8896
S'2105532'
p8897
asS'481020'
p8898
(lp8899
S'1606902'
p8900
asS'719102'
p8901
(lp8902
S'1928655'
p8903
aS'1774706'
p8904
aS'1774963'
p8905
asS'303371'
p8906
(lp8907
S'1837210'
p8908
asS'1408249'
p8909
(lp8910
S'1606574'
p8911
aS'1606902'
p8912
asS'924032'
p8913
(lp8914
S'1606902'
p8915
aS'1775044'
p8916
aS'1606717'
p8917
aS'1606608'
p8918
aS'1760350'
p8919
aS'266404'
p8920
aS'2105468'
p8921
aS'516756'
p8922
aS'520759'
p8923
aS'713248'
p8924
aS'1774505'
p8925
aS'1775024'
p8926
aS'437017'
p8927
aS'480678'
p8928
aS'159917'
p8929
aS'458026'
p8930
asS'1354945'
p8931
(lp8932
S'1606717'
p8933
asS'265232'
p8934
(lp8935
S'1775045'
p8936
aS'1760388'
p8937
aS'2335873'
p8938
aS'577332'
p8939
aS'1774505'
p8940
aS'2105465'
p8941
aS'2105453'
p8942
aS'1606717'
p8943
aS'1775044'
p8944
aS'2105591'
p8945
asS'903834'
p8946
(lp8947
S'1606902'
p8948
asS'513738'
p8949
(lp8950
S'1606902'
p8951
aS'1606717'
p8952
aS'1760338'
p8953
asS'2017736'
p8954
(lp8955
S'1606574'
p8956
asS'265234'
p8957
(lp8958
S'1606902'
p8959
asS'1601098'
p8960
(lp8961
S'1774848'
p8962
asS'1833312'
p8963
(lp8964
S'1606902'
p8965
asS'1180965'
p8966
(lp8967
S'1774717'
p8968
aS'1760350'
p8969
asS'668886'
p8970
(lp8971
S'563514'
p8972
asS'575055'
p8973
(lp8974
S'824521'
p8975
aS'441411'
p8976
aS'1774967'
p8977
aS'1928748'
p8978
aS'576379'
p8979
aS'741521'
p8980
aS'2188303'
p8981
aS'1760654'
p8982
aS'428085'
p8983
aS'456253'
p8984
aS'713251'
p8985
aS'1606600'
p8986
aS'387750'
p8987
aS'626589'
p8988
aS'922070'
p8989
aS'645113'
p8990
aS'303060'
p8991
aS'1774505'
p8992
aS'218438'
p8993
asS'1543650'
p8994
(lp8995
S'1606902'
p8996
asS'1001915'
p8997
(lp8998
S'441554'
p8999
asS'1455808'
p9000
(lp9001
S'1606717'
p9002
asS'1627130'
p9003
(lp9004
S'1774717'
p9005
aS'1774963'
p9006
aS'1775011'
p9007
aS'1774452'
p9008
aS'2105598'
p9009
aS'1760350'
p9010
aS'553517'
p9011
aS'1774722'
p9012
aS'1774822'
p9013
aS'1606902'
p9014
aS'1774969'
p9015
asS'163730'
p9016
(lp9017
S'1606902'
p9018
aS'1774717'
p9019
aS'436442'
p9020
asS'1441513'
p9021
(lp9022
S'2105482'
p9023
aS'562574'
p9024
aS'1760338'
p9025
aS'754522'
p9026
aS'563514'
p9027
aS'1606574'
p9028
aS'1774862'
p9029
aS'1837210'
p9030
aS'2224167'
p9031
aS'2105464'
p9032
aS'338764'
p9033
asS'1855629'
p9034
(lp9035
S'1774594'
p9036
asS'719969'
p9037
(lp9038
S'1606902'
p9039
aS'701886'
p9040
asS'860349'
p9041
(lp9042
S'1606902'
p9043
aS'1774957'
p9044
aS'2105515'
p9045
aS'1419930'
p9046
aS'1954203'
p9047
aS'1774603'
p9048
aS'2105486'
p9049
aS'1760353'
p9050
aS'577590'
p9051
asS'768515'
p9052
(lp9053
S'1606902'
p9054
asS'2030496'
p9055
(lp9056
S'674753'
p9057
asS'578010'
p9058
(lp9059
S'1606902'
p9060
asS'1076570'
p9061
(lp9062
S'1954203'
p9063
aS'1606902'
p9064
asS'471410'
p9065
(lp9066
S'1606902'
p9067
aS'2105599'
p9068
asS'639840'
p9069
(lp9070
S'1606902'
p9071
asS'1956935'
p9072
(lp9073
S'1760401'
p9074
aS'436442'
p9075
aS'1774505'
p9076
asS'1026376'
p9077
(lp9078
S'1606902'
p9079
asS'1121395'
p9080
(lp9081
S'1774969'
p9082
aS'741909'
p9083
aS'124938'
p9084
aS'577316'
p9085
aS'1606552'
p9086
aS'1760381'
p9087
aS'300076'
p9088
aS'1774816'
p9089
asS'1806512'
p9090
(lp9091
S'1791518'
p9092
aS'1606574'
p9093
aS'1606902'
p9094
aS'713254'
p9095
aS'2105603'
p9096
aS'930749'
p9097
aS'827735'
p9098
aS'908591'
p9099
aS'1774706'
p9100
aS'647356'
p9101
aS'1775024'
p9102
aS'2105484'
p9103
aS'1837210'
p9104
aS'2188303'
p9105
aS'1606515'
p9106
aS'1095970'
p9107
aS'693330'
p9108
aS'2012081'
p9109
asS'229090'
p9110
(lp9111
S'724706'
p9112
aS'1774505'
p9113
asS'1506040'
p9114
(lp9115
S'1606574'
p9116
asS'1859458'
p9117
(lp9118
S'1606902'
p9119
asS'1353025'
p9120
(lp9121
S'1606717'
p9122
asS'931042'
p9123
(lp9124
S'1837210'
p9125
aS'1928678'
p9126
asS'328867'
p9127
(lp9128
S'724489'
p9129
aS'791724'
p9130
aS'1760402'
p9131
aS'1606717'
p9132
asS'1924749'
p9133
(lp9134
S'1606902'
p9135
asS'1344798'
p9136
(lp9137
S'1606902'
p9138
aS'655775'
p9139
asS'830468'
p9140
(lp9141
S'1606609'
p9142
asS'2086055'
p9143
(lp9144
S'1606902'
p9145
asS'1592284'
p9146
(lp9147
S'1606902'
p9148
aS'2105482'
p9149
asS'749781'
p9150
(lp9151
S'299289'
p9152
aS'727272'
p9153
aS'131665'
p9154
aS'1606902'
p9155
aS'1774781'
p9156
aS'2105529'
p9157
aS'1774686'
p9158
aS'1606610'
p9159
aS'1774471'
p9160
aS'1774925'
p9161
aS'1774589'
p9162
aS'521169'
p9163
aS'621735'
p9164
aS'343522'
p9165
aS'703278'
p9166
aS'1774532'
p9167
aS'1775028'
p9168
aS'1760349'
p9169
aS'2172762'
p9170
aS'563507'
p9171
aS'693635'
p9172
aS'729772'
p9173
aS'1760356'
p9174
aS'713227'
p9175
aS'1505267'
p9176
aS'1774649'
p9177
aS'1774776'
p9178
aS'1774540'
p9179
aS'867199'
p9180
aS'1567096'
p9181
aS'1774482'
p9182
aS'651131'
p9183
aS'1606474'
p9184
aS'1928727'
p9185
aS'1760327'
p9186
aS'1760364'
p9187
aS'731992'
p9188
aS'1774534'
p9189
aS'1774705'
p9190
aS'1231352'
p9191
aS'1774707'
p9192
aS'1760432'
p9193
aS'2105595'
p9194
aS'2260864'
p9195
aS'1760392'
p9196
aS'699215'
p9197
aS'713239'
p9198
aS'2105722'
p9199
aS'1349990'
p9200
aS'1774692'
p9201
aS'1774839'
p9202
aS'462104'
p9203
aS'1638658'
p9204
aS'713225'
p9205
aS'1023543'
p9206
aS'670442'
p9207
aS'2105784'
p9208
aS'624922'
p9209
aS'1760363'
p9210
aS'2287260'
p9211
aS'1244528'
p9212
aS'1774635'
p9213
aS'2404454'
p9214
aS'665889'
p9215
aS'721665'
p9216
aS'572220'
p9217
aS'930749'
p9218
aS'1760423'
p9219
aS'1775011'
p9220
aS'651589'
p9221
aS'2105453'
p9222
aS'741521'
p9223
aS'859175'
p9224
aS'1760366'
p9225
aS'1606607'
p9226
aS'1774584'
p9227
aS'1774800'
p9228
aS'1494039'
p9229
aS'1606717'
p9230
aS'1760493'
p9231
aS'356904'
p9232
aS'1774638'
p9233
aS'723577'
p9234
aS'908591'
p9235
aS'1746244'
p9236
aS'760113'
p9237
aS'1606523'
p9238
aS'531776'
p9239
aS'655550'
p9240
aS'696419'
p9241
aS'140050'
p9242
aS'1774617'
p9243
aS'2105458'
p9244
aS'1760618'
p9245
aS'1775057'
p9246
aS'824521'
p9247
aS'1774599'
p9248
aS'1774789'
p9249
aS'713228'
p9250
aS'1331770'
p9251
aS'1606525'
p9252
aS'1775001'
p9253
aS'1334555'
p9254
aS'374244'
p9255
aS'1086517'
p9256
aS'1774550'
p9257
aS'754273'
p9258
aS'1760377'
p9259
aS'1928741'
p9260
aS'1774511'
p9261
aS'1606595'
p9262
aS'2163868'
p9263
aS'533506'
p9264
aS'741681'
p9265
aS'1774946'
p9266
aS'753484'
p9267
aS'762474'
p9268
aS'713325'
p9269
aS'1394821'
p9270
aS'1774507'
p9271
aS'1774522'
p9272
aS'728408'
p9273
aS'762768'
p9274
aS'1775049'
p9275
aS'524653'
p9276
aS'798225'
p9277
aS'1561596'
p9278
aS'623203'
p9279
aS'738527'
p9280
aS'2167615'
p9281
aS'932098'
p9282
asS'901878'
p9283
(lp9284
S'1774675'
p9285
aS'1760400'
p9286
aS'529228'
p9287
aS'1774594'
p9288
aS'441554'
p9289
aS'1774540'
p9290
aS'1775014'
p9291
aS'824521'
p9292
aS'933438'
p9293
aS'428085'
p9294
aS'1760410'
p9295
aS'2105575'
p9296
aS'1774848'
p9297
aS'1774925'
p9298
aS'285784'
p9299
aS'577590'
p9300
aS'569731'
p9301
aS'724706'
p9302
aS'760113'
p9303
aS'867199'
p9304
aS'1760366'
p9305
aS'521169'
p9306
aS'922070'
p9307
aS'1760362'
p9308
aS'513098'
p9309
aS'665932'
p9310
aS'1638658'
p9311
aS'2105550'
p9312
aS'778749'
p9313
aS'1606557'
p9314
aS'514598'
p9315
aS'1774616'
p9316
aS'167746'
p9317
aS'1680863'
p9318
aS'277695'
p9319
aS'724526'
p9320
aS'713224'
p9321
aS'2105570'
p9322
aS'127164'
p9323
aS'1606691'
p9324
aS'2105542'
p9325
aS'1606717'
p9326
aS'1774969'
p9327
aS'725379'
p9328
aS'1606607'
p9329
aS'1760360'
p9330
aS'1774613'
p9331
aS'193952'
p9332
aS'1775098'
p9333
aS'1349990'
p9334
aS'2105563'
p9335
aS'1774635'
p9336
aS'2105517'
p9337
aS'1760423'
p9338
aS'1774550'
p9339
aS'1606523'
p9340
aS'1760326'
p9341
aS'1774776'
p9342
aS'693635'
p9343
aS'1458847'
p9344
aS'1774718'
p9345
aS'1775088'
p9346
aS'927900'
p9347
asS'1208452'
p9348
(lp9349
S'1606902'
p9350
asS'394826'
p9351
(lp9352
S'1606902'
p9353
aS'665932'
p9354
asS'169290'
p9355
(lp9356
S'1606902'
p9357
aS'713240'
p9358
aS'218438'
p9359
aS'1675399'
p9360
aS'1760350'
p9361
aS'1837210'
p9362
aS'2105598'
p9363
aS'1774452'
p9364
asS'1187714'
p9365
(lp9366
S'1606717'
p9367
asS'1827412'
p9368
(lp9369
S'1606608'
p9370
aS'2105465'
p9371
asS'209914'
p9372
(lp9373
S'1606717'
p9374
asS'1628471'
p9375
(lp9376
S'1606902'
p9377
asS'691210'
p9378
(lp9379
S'1775044'
p9380
aS'1837210'
p9381
asS'1685928'
p9382
(lp9383
S'2224167'
p9384
aS'1760376'
p9385
aS'1774717'
p9386
aS'1870054'
p9387
aS'1775002'
p9388
aS'1606596'
p9389
aS'1774862'
p9390
aS'713248'
p9391
aS'1928678'
p9392
asS'1193544'
p9393
(lp9394
S'1606902'
p9395
asS'312544'
p9396
(lp9397
S'1606902'
p9398
asS'1193015'
p9399
(lp9400
S'1606902'
p9401
aS'1760400'
p9402
aS'704241'
p9403
aS'2105511'
p9404
asS'979330'
p9405
(lp9406
S'1606902'
p9407
asS'411232'
p9408
(lp9409
S'1606902'
p9410
aS'1774452'
p9411
asS'446231'
p9412
(lp9413
S'1606902'
p9414
asS'1723621'
p9415
(lp9416
S'1606717'
p9417
asS'572057'
p9418
(lp9419
S'1774594'
p9420
aS'193952'
p9421
aS'573423'
p9422
aS'1774706'
p9423
aS'627961'
p9424
asS'737108'
p9425
(lp9426
S'1458847'
p9427
asS'720605'
p9428
(lp9429
S'1774505'
p9430
asS'912151'
p9431
(lp9432
S'1774462'
p9433
aS'2105506'
p9434
aS'1437896'
p9435
aS'1649853'
p9436
aS'1870054'
p9437
aS'1774616'
p9438
aS'713240'
p9439
aS'2105458'
p9440
aS'1394821'
p9441
aS'2105504'
p9442
aS'727272'
p9443
aS'731389'
p9444
aS'1774934'
p9445
aS'1774718'
p9446
aS'1928678'
p9447
aS'2105486'
p9448
aS'2322357'
p9449
aS'1760367'
p9450
aS'1837210'
p9451
aS'1356507'
p9452
aS'1774591'
p9453
aS'403259'
p9454
aS'1774594'
p9455
aS'291065'
p9456
aS'1775024'
p9457
asS'737106'
p9458
(lp9459
S'1932882'
p9460
aS'1774594'
p9461
asS'165170'
p9462
(lp9463
S'544479'
p9464
asS'229320'
p9465
(lp9466
S'1791518'
p9467
asS'229322'
p9468
(lp9469
S'1774452'
p9470
as.